;; dac -O0 annotated listing
;; input:     tests/fixtures/hello-x86_64.exe
;; format:    PE
;; arch:      x86-64
;; entry:     0x0000000140001440
;; size:      40941 bytes
;; functions: 76
;; signals:   symbol=75 entry=1 call=48 prologue=1 plt=0

;; ============================================================
;; function __mingw_invalidParameterHandler [0x0000000140001000..0x0000000140001010) (16 bytes)
;;   confidence: observed 1.000
;;   sources:   symbol
;; ============================================================
0x0000000140001000  c3                            ret        ; ret
0x0000000140001001  0f 1f 40 00                   nop        [rax] ; nop
0x0000000140001005  66 66 2e 0f 1f 84 00 00 .     nop        [rax+rax] ; nop

;; ============================================================
;; function safe_flush [0x0000000140001010..0x0000000140001020) (16 bytes)
;;   confidence: observed 1.000
;;   sources:   symbol
;; ============================================================
0x0000000140001010  31 c9                         xor        ecx,ecx ; xor(ecx:32, ecx:32)
0x0000000140001012  e9 79 19 00 00                jmp        0000000140002990h ; jmp(@0x140002990)
0x0000000140001017  66 0f 1f 84 00 00 00 00 .     nop        [rax+rax] ; nop

;; ============================================================
;; function __tmainCRTStartup [0x0000000140001020..0x0000000140001420) (1024 bytes)
;;   confidence: observed 1.000
;;   sources:   symbol, call
;; ============================================================
0x0000000140001020  41 57                         push       r15 ; push(r15:64)
0x0000000140001022  41 56                         push       r14 ; push(r14:64)
0x0000000140001024  41 55                         push       r13 ; push(r13:64)
0x0000000140001026  41 54                         push       r12 ; push(r12:64)
0x0000000140001028  55                            push       rbp ; push(rbp:64)
0x0000000140001029  57                            push       rdi ; push(rdi:64)
0x000000014000102a  56                            push       rsi ; push(rsi:64)
0x000000014000102b  53                            push       rbx ; push(rbx:64)
0x000000014000102c  48 83 ec 58                   sub        rsp,58h ; sub(rsp:64, 88#64)
0x0000000140001030  65 48 8b 04 25 30 00 00 .     mov        rax,gs:[30h] ; mov(rax:64, gs:[48]:64)
0x0000000140001039  48 8b 70 08                   mov        rsi,[rax+8] ; mov(rsi:64, ds:[rax+8]:64)
0x000000014000103d  48 8b 1d 6c 34 00 00          mov        rbx,[1400044B0h] ; mov(rbx:64, ds:[5368726704]:64)
0x0000000140001044  48 8b 3d 95 82 00 00          mov        rdi,[1400092E0h] ; mov(rdi:64, ds:[5368746720]:64)
0x000000014000104b  eb 13                         jmp        short 0000000140001060h ; jmp(@0x140001060)
0x000000014000104d  0f 1f 00                      nop        [rax] ; nop
0x0000000140001050  48 39 c6                      cmp        rsi,rax ; cmp(rsi:64, rax:64)
0x0000000140001053  0f 84 af 00 00 00             je         0000000140001108h ; jcc.eq(@0x140001108)
0x0000000140001059  b9 e8 03 00 00                mov        ecx,3E8h ; mov(ecx:32, 1000#32)
0x000000014000105e  ff d7                         call       rdi ; call(rdi:64)
0x0000000140001060  31 c0                         xor        eax,eax ; xor(eax:32, eax:32)
0x0000000140001062  f0 48 0f b1 33                lock       cmpxchg [rbx],rsi ; opaque(cmpxchg)
0x0000000140001067  75 e7                         jne        short 0000000140001050h ; jcc.ne(@0x140001050)
0x0000000140001069  45 31 ed                      xor        r13d,r13d ; xor(r13d:32, r13d:32)
0x000000014000106c  48 8b 2d 4d 34 00 00          mov        rbp,[1400044C0h] ; mov(rbp:64, ds:[5368726720]:64)
0x0000000140001073  8b 45 00                      mov        eax,[rbp] ; mov(eax:32, ss:[rbp]:32)
0x0000000140001076  83 f8 01                      cmp        eax,1 ; cmp(eax:32, 1#32)
0x0000000140001079  0f 84 8f 03 00 00             je         000000014000140Eh ; jcc.eq(@0x14000140e)
0x000000014000107f  8b 45 00                      mov        eax,[rbp] ; mov(eax:32, ss:[rbp]:32)
0x0000000140001082  85 c0                         test       eax,eax ; test(eax:32, eax:32)
0x0000000140001084  0f 84 b6 00 00 00             je         0000000140001140h ; jcc.eq(@0x140001140)
0x000000014000108a  c7 05 70 6f 00 00 01 00 .     mov        dword ptr [140008004h],1 ; mov(ds:[5368741892]:32, 1#32)
0x0000000140001094  45 85 ed                      test       r13d,r13d ; test(r13d:32, r13d:32)
0x0000000140001097  0f 84 93 00 00 00             je         0000000140001130h ; jcc.eq(@0x140001130)
0x000000014000109d  48 8b 05 8c 33 00 00          mov        rax,[140004430h] ; mov(rax:64, ds:[5368726576]:64)
0x00000001400010a4  48 8b 00                      mov        rax,[rax] ; mov(rax:64, ds:[rax]:64)
0x00000001400010a7  48 85 c0                      test       rax,rax ; test(rax:64, rax:64)
0x00000001400010aa  74 0c                         je         short 00000001400010B8h ; jcc.eq(@0x1400010b8)
0x00000001400010ac  45 31 c0                      xor        r8d,r8d ; xor(r8d:32, r8d:32)
0x00000001400010af  ba 02 00 00 00                mov        edx,2 ; mov(edx:32, 2#32)
0x00000001400010b4  31 c9                         xor        ecx,ecx ; xor(ecx:32, ecx:32)
0x00000001400010b6  ff d0                         call       rax ; call(rax:64)
0x00000001400010b8  e8 03 18 00 00                call       00000001400028C0h ; call(@0x1400028c0)
0x00000001400010bd  4c 8b 05 4c 6f 00 00          mov        r8,[140008010h] ; mov(r8:64, ds:[5368741904]:64)
0x00000001400010c4  8b 0d 56 6f 00 00             mov        ecx,[140008020h] ; mov(ecx:32, ds:[5368741920]:32)
0x00000001400010ca  4c 89 00                      mov        [rax],r8 ; mov(ds:[rax]:64, r8:64)
0x00000001400010cd  48 8b 15 44 6f 00 00          mov        rdx,[140008018h] ; mov(rdx:64, ds:[5368741912]:64)
0x00000001400010d4  e8 87 19 00 00                call       0000000140002A60h ; call(@0x140002a60)
0x00000001400010d9  8b 0d 29 6f 00 00             mov        ecx,[140008008h] ; mov(ecx:32, ds:[5368741896]:32)
0x00000001400010df  85 c9                         test       ecx,ecx ; test(ecx:32, ecx:32)
0x00000001400010e1  0f 84 20 03 00 00             je         0000000140001407h ; jcc.eq(@0x140001407)
0x00000001400010e7  8b 15 17 6f 00 00             mov        edx,[140008004h] ; mov(edx:32, ds:[5368741892]:32)
0x00000001400010ed  85 d2                         test       edx,edx ; test(edx:32, edx:32)
0x00000001400010ef  74 27                         je         short 0000000140001118h ; jcc.eq(@0x140001118)
0x00000001400010f1  48 83 c4 58                   add        rsp,58h ; add(rsp:64, 88#64)
0x00000001400010f5  5b                            pop        rbx ; pop(rbx:64)
0x00000001400010f6  5e                            pop        rsi ; pop(rsi:64)
0x00000001400010f7  5f                            pop        rdi ; pop(rdi:64)
0x00000001400010f8  5d                            pop        rbp ; pop(rbp:64)
0x00000001400010f9  41 5c                         pop        r12 ; pop(r12:64)
0x00000001400010fb  41 5d                         pop        r13 ; pop(r13:64)
0x00000001400010fd  41 5e                         pop        r14 ; pop(r14:64)
0x00000001400010ff  41 5f                         pop        r15 ; pop(r15:64)
0x0000000140001101  c3                            ret        ; ret
0x0000000140001102  66 0f 1f 44 00 00             nop        [rax+rax] ; nop
0x0000000140001108  41 bd 01 00 00 00             mov        r13d,1 ; mov(r13d:32, 1#32)
0x000000014000110e  e9 59 ff ff ff                jmp        000000014000106Ch ; jmp(@0x14000106c)
0x0000000140001113  0f 1f 44 00 00                nop        [rax+rax] ; nop
0x0000000140001118  89 44 24 3c                   mov        [rsp+3Ch],eax ; mov(ss:[rsp+60]:32, eax:32)
0x000000014000111c  e8 97 18 00 00                call       00000001400029B8h ; call(@0x1400029b8)
0x0000000140001121  8b 44 24 3c                   mov        eax,[rsp+3Ch] ; mov(eax:32, ss:[rsp+60]:32)
0x0000000140001125  eb ca                         jmp        short 00000001400010F1h ; jmp(@0x1400010f1)
0x0000000140001127  66 0f 1f 84 00 00 00 00 .     nop        [rax+rax] ; nop
0x0000000140001130  31 c0                         xor        eax,eax ; xor(eax:32, eax:32)
0x0000000140001132  48 87 03                      xchg       [rbx],rax ; opaque(xchg)
0x0000000140001135  e9 63 ff ff ff                jmp        000000014000109Dh ; jmp(@0x14000109d)
0x000000014000113a  66 0f 1f 44 00 00             nop        [rax+rax] ; nop
0x0000000140001140  b9 02 00 00 00                mov        ecx,2 ; mov(ecx:32, 2#32)
0x0000000140001145  c7 45 00 01 00 00 00          mov        dword ptr [rbp],1 ; mov(ss:[rbp]:32, 1#32)
0x000000014000114c  e8 1f 18 00 00                call       0000000140002970h ; call(@0x140002970)
0x0000000140001151  45 31 c9                      xor        r9d,r9d ; xor(r9d:32, r9d:32)
0x0000000140001154  41 b8 04 00 00 00             mov        r8d,4 ; mov(r8d:32, 4#32)
0x000000014000115a  31 d2                         xor        edx,edx ; xor(edx:32, edx:32)
0x000000014000115c  48 89 c1                      mov        rcx,rax ; mov(rcx:64, rax:64)
0x000000014000115f  e8 34 18 00 00                call       0000000140002998h ; call(@0x140002998)
0x0000000140001164  48 8d 0d a5 fe ff ff          lea        rcx,[140001010h] ; lea(rcx:64, ds:[5368713232]:0)
0x000000014000116b  e8 58 18 00 00                call       00000001400029C8h ; call(@0x1400029c8)
0x0000000140001170  89 c6                         mov        esi,eax ; mov(esi:32, eax:32)
0x0000000140001172  85 c0                         test       eax,eax ; test(eax:32, eax:32)
0x0000000140001174  0f 85 7e 02 00 00             jne        00000001400013F8h ; jcc.ne(@0x1400013f8)
0x000000014000117a  e8 81 08 00 00                call       0000000140001A00h ; call(@0x140001a00)
0x000000014000117f  48 8d 0d fa 0d 00 00          lea        rcx,[140001F80h] ; lea(rcx:64, ds:[5368717184]:0)
0x0000000140001186  ff 15 4c 81 00 00             call       qword ptr [1400092D8h] ; call(ds:[5368746712]:64)
0x000000014000118c  48 8b 15 0d 33 00 00          mov        rdx,[1400044A0h] ; mov(rdx:64, ds:[5368726688]:64)
0x0000000140001193  48 8d 0d 66 fe ff ff          lea        rcx,[140001000h] ; lea(rcx:64, ds:[5368713216]:0)
0x000000014000119a  48 89 02                      mov        [rdx],rax ; mov(ds:[rdx]:64, rax:64)
0x000000014000119d  e8 4e 18 00 00                call       00000001400029F0h ; call(@0x1400029f0)
0x00000001400011a2  e8 39 12 00 00                call       00000001400023E0h ; call(@0x1400023e0)
0x00000001400011a7  48 8b 05 c2 32 00 00          mov        rax,[140004470h] ; mov(rax:64, ds:[5368726640]:64)
0x00000001400011ae  c7 00 01 00 00 00             mov        dword ptr [rax],1 ; mov(ds:[rax]:32, 1#32)
0x00000001400011b4  48 8b 05 c5 32 00 00          mov        rax,[140004480h] ; mov(rax:64, ds:[5368726656]:64)
0x00000001400011bb  c7 00 01 00 00 00             mov        dword ptr [rax],1 ; mov(ds:[rax]:32, 1#32)
0x00000001400011c1  48 8b 05 c8 32 00 00          mov        rax,[140004490h] ; mov(rax:64, ds:[5368726672]:64)
0x00000001400011c8  c7 00 01 00 00 00             mov        dword ptr [rax],1 ; mov(ds:[rax]:32, 1#32)
0x00000001400011ce  48 8b 05 2b 32 00 00          mov        rax,[140004400h] ; mov(rax:64, ds:[5368726528]:64)
0x00000001400011d5  66 81 38 4d 5a                cmp        word ptr [rax],5A4Dh ; cmp(ds:[rax]:16, 23117#16)
0x00000001400011da  75 44                         jne        short 0000000140001220h ; jcc.ne(@0x140001220)
0x00000001400011dc  48 63 50 3c                   movsxd     rdx,[rax+3Ch] ; mov(rdx:64, ds:[rax+60]:32)
0x00000001400011e0  48 01 d0                      add        rax,rdx ; add(rax:64, rdx:64)
0x00000001400011e3  81 38 50 45 00 00             cmp        dword ptr [rax],4550h ; cmp(ds:[rax]:32, 17744#32)
0x00000001400011e9  75 35                         jne        short 0000000140001220h ; jcc.ne(@0x140001220)
0x00000001400011eb  0f b7 50 18                   movzx      edx,word ptr [rax+18h] ; mov(edx:32, ds:[rax+24]:16)
0x00000001400011ef  66 81 fa 0b 01                cmp        dx,10Bh ; cmp(dx:16, 267#16)
0x00000001400011f4  0f 84 df 01 00 00             je         00000001400013D9h ; jcc.eq(@0x1400013d9)
0x00000001400011fa  66 81 fa 0b 02                cmp        dx,20Bh ; cmp(dx:16, 523#16)
0x00000001400011ff  75 1f                         jne        short 0000000140001220h ; jcc.ne(@0x140001220)
0x0000000140001201  83 b8 84 00 00 00 0e          cmp        dword ptr [rax+84h],0Eh ; cmp(ds:[rax+132]:32, 14#32)
0x0000000140001208  76 16                         jbe        short 0000000140001220h ; jcc.be(@0x140001220)
0x000000014000120a  44 8b 88 f8 00 00 00          mov        r9d,[rax+0F8h] ; mov(r9d:32, ds:[rax+248]:32)
0x0000000140001211  31 f6                         xor        esi,esi ; xor(esi:32, esi:32)
0x0000000140001213  45 85 c9                      test       r9d,r9d ; test(r9d:32, r9d:32)
0x0000000140001216  40 0f 95 c6                   setne      sil ; opaque(setne)
0x000000014000121a  66 0f 1f 44 00 00             nop        [rax+rax] ; nop
0x0000000140001220  48 8b 05 39 32 00 00          mov        rax,[140004460h] ; mov(rax:64, ds:[5368726624]:64)
0x0000000140001227  89 35 db 6d 00 00             mov        [140008008h],esi ; mov(ds:[5368741896]:32, esi:32)
0x000000014000122d  44 8b 00                      mov        r8d,[rax] ; mov(r8d:32, ds:[rax]:32)
0x0000000140001230  45 85 c0                      test       r8d,r8d ; test(r8d:32, r8d:32)
0x0000000140001233  0f 85 2f 01 00 00             jne        0000000140001368h ; jcc.ne(@0x140001368)
0x0000000140001239  b9 01 00 00 00                mov        ecx,1 ; mov(ecx:32, 1#32)
0x000000014000123e  e8 5d 17 00 00                call       00000001400029A0h ; call(@0x1400029a0)
0x0000000140001243  e8 38 17 00 00                call       0000000140002980h ; call(@0x140002980)
0x0000000140001248  48 8b 15 e1 32 00 00          mov        rdx,[140004530h] ; mov(rdx:64, ds:[5368726832]:64)
0x000000014000124f  8b 12                         mov        edx,[rdx] ; mov(edx:32, ds:[rdx]:32)
0x0000000140001251  89 10                         mov        [rax],edx ; mov(ds:[rax]:32, edx:32)
0x0000000140001253  e8 20 17 00 00                call       0000000140002978h ; call(@0x140002978)
0x0000000140001258  48 8b 15 b1 32 00 00          mov        rdx,[140004510h] ; mov(rdx:64, ds:[5368726800]:64)
0x000000014000125f  8b 12                         mov        edx,[rdx] ; mov(edx:32, ds:[rdx]:32)
0x0000000140001261  89 10                         mov        [rax],edx ; mov(ds:[rax]:32, edx:32)
0x0000000140001263  e8 08 04 00 00                call       0000000140001670h ; call(@0x140001670)
0x0000000140001268  85 c0                         test       eax,eax ; test(eax:32, eax:32)
0x000000014000126a  0f 88 e9 00 00 00             js         0000000140001359h ; jcc.s(@0x140001359)
0x0000000140001270  48 8b 05 69 31 00 00          mov        rax,[1400043E0h] ; mov(rax:64, ds:[5368726496]:64)
0x0000000140001277  83 38 01                      cmp        dword ptr [rax],1 ; cmp(ds:[rax]:32, 1#32)
0x000000014000127a  0f 84 48 01 00 00             je         00000001400013C8h ; jcc.eq(@0x1400013c8)
0x0000000140001280  48 8b 05 b9 31 00 00          mov        rax,[140004440h] ; mov(rax:64, ds:[5368726592]:64)
0x0000000140001287  83 38 ff                      cmp        dword ptr [rax],0FFFFFFFFh ; cmp(ds:[rax]:32, -1#32)
0x000000014000128a  0f 84 29 01 00 00             je         00000001400013B9h ; jcc.eq(@0x1400013b9)
0x0000000140001290  48 8b 15 69 32 00 00          mov        rdx,[140004500h] ; mov(rdx:64, ds:[5368726784]:64)
0x0000000140001297  48 8b 0d 52 32 00 00          mov        rcx,[1400044F0h] ; mov(rcx:64, ds:[5368726768]:64)
0x000000014000129e  e8 45 17 00 00                call       00000001400029E8h ; call(@0x1400029e8)
0x00000001400012a3  85 c0                         test       eax,eax ; test(eax:32, eax:32)
0x00000001400012a5  0f 85 52 01 00 00             jne        00000001400013FDh ; jcc.ne(@0x1400013fd)
0x00000001400012ab  48 8b 05 8e 32 00 00          mov        rax,[140004540h] ; mov(rax:64, ds:[5368726848]:64)
0x00000001400012b2  4c 8d 05 57 6d 00 00          lea        r8,[140008010h] ; lea(r8:64, ds:[5368741904]:0)
0x00000001400012b9  48 8d 15 58 6d 00 00          lea        rdx,[140008018h] ; lea(rdx:64, ds:[5368741912]:0)
0x00000001400012c0  48 8d 0d 59 6d 00 00          lea        rcx,[140008020h] ; lea(rcx:64, ds:[5368741920]:0)
0x00000001400012c7  8b 00                         mov        eax,[rax] ; mov(eax:32, ds:[rax]:32)
0x00000001400012c9  89 44 24 4c                   mov        [rsp+4Ch],eax ; mov(ss:[rsp+76]:32, eax:32)
0x00000001400012cd  48 8b 05 4c 32 00 00          mov        rax,[140004520h] ; mov(rax:64, ds:[5368726816]:64)
0x00000001400012d4  44 8b 08                      mov        r9d,[rax] ; mov(r9d:32, ds:[rax]:32)
0x00000001400012d7  48 8d 44 24 4c                lea        rax,[rsp+4Ch] ; lea(rax:64, ss:[rsp+76]:0)
0x00000001400012dc  48 89 44 24 20                mov        [rsp+20h],rax ; mov(ss:[rsp+32]:64, rax:64)
0x00000001400012e1  e8 1a 16 00 00                call       0000000140002900h ; call(@0x140002900)
0x00000001400012e6  85 c0                         test       eax,eax ; test(eax:32, eax:32)
0x00000001400012e8  78 6f                         js         short 0000000140001359h ; jcc.s(@0x140001359)
0x00000001400012ea  4c 63 35 2f 6d 00 00          movsxd     r14,[140008020h] ; mov(r14:64, ds:[5368741920]:32)
0x00000001400012f1  41 8d 4e 01                   lea        ecx,[r14+1] ; lea(ecx:32, ds:[r14+1]:0)
0x00000001400012f5  48 63 c9                      movsxd     rcx,ecx ; mov(rcx:64, ecx:32)
0x00000001400012f8  48 c1 e1 03                   shl        rcx,3 ; shl(rcx:64, 3#8)
0x00000001400012fc  e8 47 17 00 00                call       0000000140002A48h ; call(@0x140002a48)
0x0000000140001301  49 89 c4                      mov        r12,rax ; mov(r12:64, rax:64)
0x0000000140001304  48 85 c0                      test       rax,rax ; test(rax:64, rax:64)
0x0000000140001307  74 50                         je         short 0000000140001359h ; jcc.eq(@0x140001359)
0x0000000140001309  45 85 f6                      test       r14d,r14d ; test(r14d:32, r14d:32)
0x000000014000130c  7e 79                         jle        short 0000000140001387h ; jcc.le(@0x140001387)
0x000000014000130e  4c 8b 3d 03 6d 00 00          mov        r15,[140008018h] ; mov(r15:64, ds:[5368741912]:64)
0x0000000140001315  be 01 00 00 00                mov        esi,1 ; mov(esi:32, 1#32)
0x000000014000131a  eb 1d                         jmp        short 0000000140001339h ; jmp(@0x140001339)
0x000000014000131c  0f 1f 40 00                   nop        [rax] ; nop
0x0000000140001320  49 8b 54 f7 f8                mov        rdx,[r15+rsi*8-8] ; mov(rdx:64, ds:[r15+rsi*8-8]:64)
0x0000000140001325  49 89 f8                      mov        r8,rdi ; mov(r8:64, rdi:64)
0x0000000140001328  48 89 c1                      mov        rcx,rax ; mov(rcx:64, rax:64)
0x000000014000132b  e8 e8 16 00 00                call       0000000140002A18h ; call(@0x140002a18)
0x0000000140001330  4c 39 f6                      cmp        rsi,r14 ; cmp(rsi:64, r14:64)
0x0000000140001333  74 4b                         je         short 0000000140001380h ; jcc.eq(@0x140001380)
0x0000000140001335  48 83 c6 01                   add        rsi,1 ; add(rsi:64, 1#64)
0x0000000140001339  49 8b 4c f7 f8                mov        rcx,[r15+rsi*8-8] ; mov(rcx:64, ds:[r15+rsi*8-8]:64)
0x000000014000133e  e8 1d 16 00 00                call       0000000140002960h ; call(@0x140002960)
0x0000000140001343  48 8d 78 01                   lea        rdi,[rax+1] ; lea(rdi:64, ds:[rax+1]:0)
0x0000000140001347  48 89 f9                      mov        rcx,rdi ; mov(rcx:64, rdi:64)
0x000000014000134a  e8 f9 16 00 00                call       0000000140002A48h ; call(@0x140002a48)
0x000000014000134f  49 89 44 f4 f8                mov        [r12+rsi*8-8],rax ; mov(ds:[r12+rsi*8-8]:64, rax:64)
0x0000000140001354  48 85 c0                      test       rax,rax ; test(rax:64, rax:64)
0x0000000140001357  75 c7                         jne        short 0000000140001320h ; jcc.ne(@0x140001320)
0x0000000140001359  b9 08 00 00 00                mov        ecx,8 ; mov(ecx:32, 8#32)
0x000000014000135e  e8 6d 15 00 00                call       00000001400028D0h ; call(@0x1400028d0)
0x0000000140001363  0f 1f 44 00 00                nop        [rax+rax] ; nop
0x0000000140001368  b9 02 00 00 00                mov        ecx,2 ; mov(ecx:32, 2#32)
0x000000014000136d  e8 2e 16 00 00                call       00000001400029A0h ; call(@0x1400029a0)
0x0000000140001372  e9 cc fe ff ff                jmp        0000000140001243h ; jmp(@0x140001243)
0x0000000140001377  66 0f 1f 84 00 00 00 00 .     nop        [rax+rax] ; nop
0x0000000140001380  48 63 f6                      movsxd     rsi,esi ; mov(rsi:64, esi:32)
0x0000000140001383  49 8d 04 f4                   lea        rax,[r12+rsi*8] ; lea(rax:64, ds:[r12+rsi*8]:0)
0x0000000140001387  48 c7 00 00 00 00 00          mov        qword ptr [rax],0 ; mov(ds:[rax]:64, 0#64)
0x000000014000138e  48 8b 15 4b 31 00 00          mov        rdx,[1400044E0h] ; mov(rdx:64, ds:[5368726752]:64)
0x0000000140001395  48 8b 0d 34 31 00 00          mov        rcx,[1400044D0h] ; mov(rcx:64, ds:[5368726736]:64)
0x000000014000139c  4c 89 25 75 6c 00 00          mov        [140008018h],r12 ; mov(ds:[5368741912]:64, r12:64)
0x00000001400013a3  e8 38 16 00 00                call       00000001400029E0h ; call(@0x1400029e0)
0x00000001400013a8  e8 a3 02 00 00                call       0000000140001650h ; call(@0x140001650)
0x00000001400013ad  c7 45 00 02 00 00 00          mov        dword ptr [rbp],2 ; mov(ss:[rbp]:32, 2#32)
0x00000001400013b4  e9 db fc ff ff                jmp        0000000140001094h ; jmp(@0x140001094)
0x00000001400013b9  b9 ff ff ff ff                mov        ecx,0FFFFFFFFh ; mov(ecx:32, -1#32)
0x00000001400013be  e8 65 16 00 00                call       0000000140002A28h ; call(@0x140002a28)
0x00000001400013c3  e9 c8 fe ff ff                jmp        0000000140001290h ; jmp(@0x140001290)
0x00000001400013c8  48 8d 0d 61 03 00 00          lea        rcx,[140001730h] ; lea(rcx:64, ds:[5368715056]:0)
0x00000001400013cf  e8 fc 09 00 00                call       0000000140001DD0h ; call(@0x140001dd0)
0x00000001400013d4  e9 a7 fe ff ff                jmp        0000000140001280h ; jmp(@0x140001280)
0x00000001400013d9  83 78 74 0e                   cmp        dword ptr [rax+74h],0Eh ; cmp(ds:[rax+116]:32, 14#32)
0x00000001400013dd  0f 86 3d fe ff ff             jbe        0000000140001220h ; jcc.be(@0x140001220)
0x00000001400013e3  44 8b 90 e8 00 00 00          mov        r10d,[rax+0E8h] ; mov(r10d:32, ds:[rax+232]:32)
0x00000001400013ea  31 f6                         xor        esi,esi ; xor(esi:32, esi:32)
0x00000001400013ec  45 85 d2                      test       r10d,r10d ; test(r10d:32, r10d:32)
0x00000001400013ef  40 0f 95 c6                   setne      sil ; opaque(setne)
0x00000001400013f3  e9 28 fe ff ff                jmp        0000000140001220h ; jmp(@0x140001220)
0x00000001400013f8  e8 fb 15 00 00                call       00000001400029F8h ; call(@0x1400029f8)
0x00000001400013fd  b9 0a 00 00 00                mov        ecx,0Ah ; mov(ecx:32, 10#32)
0x0000000140001402  e8 c9 14 00 00                call       00000001400028D0h ; call(@0x1400028d0)
0x0000000140001407  89 c1                         mov        ecx,eax ; mov(ecx:32, eax:32)
0x0000000140001409  e8 f2 15 00 00                call       0000000140002A00h ; call(@0x140002a00)
0x000000014000140e  b9 1f 00 00 00                mov        ecx,1Fh ; mov(ecx:32, 31#32)
0x0000000140001413  e8 b8 14 00 00                call       00000001400028D0h ; call(@0x1400028d0)
0x0000000140001418  90                            nop        ; nop
0x0000000140001419  0f 1f 80 00 00 00 00          nop        [rax] ; nop

;; ============================================================
;; function WinMainCRTStartup [0x0000000140001420..0x0000000140001440) (32 bytes)
;;   confidence: observed 1.000
;;   sources:   symbol
;; ============================================================
0x0000000140001420  48 83 ec 28                   sub        rsp,28h ; sub(rsp:64, 40#64)
0x0000000140001424  48 8b 05 35 30 00 00          mov        rax,[140004460h] ; mov(rax:64, ds:[5368726624]:64)
0x000000014000142b  c7 00 01 00 00 00             mov        dword ptr [rax],1 ; mov(ds:[rax]:32, 1#32)
0x0000000140001431  e8 ea fb ff ff                call       0000000140001020h ; call(@0x140001020)
0x0000000140001436  90                            nop        ; nop
0x0000000140001437  90                            nop        ; nop
0x0000000140001438  48 83 c4 28                   add        rsp,28h ; add(rsp:64, 40#64)
0x000000014000143c  c3                            ret        ; ret
0x000000014000143d  0f 1f 00                      nop        [rax] ; nop

;; ============================================================
;; function mainCRTStartup [0x0000000140001440..0x0000000140001460) (32 bytes)
;;   confidence: observed 1.000
;;   sources:   symbol, entry
;; ============================================================
0x0000000140001440  48 83 ec 28                   sub        rsp,28h ; sub(rsp:64, 40#64)
0x0000000140001444  48 8b 05 15 30 00 00          mov        rax,[140004460h] ; mov(rax:64, ds:[5368726624]:64)
0x000000014000144b  c7 00 00 00 00 00             mov        dword ptr [rax],0 ; mov(ds:[rax]:32, 0#32)
0x0000000140001451  e8 ca fb ff ff                call       0000000140001020h ; call(@0x140001020)
0x0000000140001456  90                            nop        ; nop
0x0000000140001457  90                            nop        ; nop
0x0000000140001458  48 83 c4 28                   add        rsp,28h ; add(rsp:64, 40#64)
0x000000014000145c  c3                            ret        ; ret
0x000000014000145d  0f 1f 00                      nop        [rax] ; nop

;; ============================================================
;; function atexit [0x0000000140001460..0x0000000140001490) (48 bytes)
;;   confidence: observed 1.000
;;   sources:   symbol
;; ============================================================
0x0000000140001460  e9 63 15 00 00                jmp        00000001400029C8h ; jmp(@0x1400029c8)
0x0000000140001465  90                            nop        ; nop
0x0000000140001466  90                            nop        ; nop
0x0000000140001467  90                            nop        ; nop
0x0000000140001468  90                            nop        ; nop
0x0000000140001469  90                            nop        ; nop
0x000000014000146a  90                            nop        ; nop
0x000000014000146b  90                            nop        ; nop
0x000000014000146c  90                            nop        ; nop
0x000000014000146d  90                            nop        ; nop
0x000000014000146e  90                            nop        ; nop
0x000000014000146f  90                            nop        ; nop
0x0000000140001470  c3                            ret        ; ret
0x0000000140001471  0f 1f 40 00                   nop        [rax] ; nop
0x0000000140001475  66 66 2e 0f 1f 84 00 00 .     nop        [rax+rax] ; nop
0x0000000140001480  31 c0                         xor        eax,eax ; xor(eax:32, eax:32)
0x0000000140001482  c3                            ret        ; ret
0x0000000140001483  66 90                         xchg       ax,ax ; nop
0x0000000140001485  66 66 2e 0f 1f 84 00 00 .     nop        [rax+rax] ; nop

;; ============================================================
;; function __gcc_register_frame [0x0000000140001490..0x0000000140001540) (176 bytes)
;;   confidence: observed 1.000
;;   sources:   symbol
;; ============================================================
0x0000000140001490  55                            push       rbp ; push(rbp:64)
0x0000000140001491  53                            push       rbx ; push(rbx:64)
0x0000000140001492  48 83 ec 38                   sub        rsp,38h ; sub(rsp:64, 56#64)
0x0000000140001496  48 8d 6c 24 30                lea        rbp,[rsp+30h] ; lea(rbp:64, ss:[rsp+48]:0)
0x000000014000149b  48 8d 0d 5e 2b 00 00          lea        rcx,[140004000h] ; lea(rcx:64, ds:[5368725504]:0)
0x00000001400014a2  ff 15 00 7e 00 00             call       qword ptr [1400092A8h] ; call(ds:[5368746664]:64)
0x00000001400014a8  48 89 c3                      mov        rbx,rax ; mov(rbx:64, rax:64)
0x00000001400014ab  48 85 c0                      test       rax,rax ; test(rax:64, rax:64)
0x00000001400014ae  74 70                         je         short 0000000140001520h ; jcc.eq(@0x140001520)
0x00000001400014b0  48 8d 0d 49 2b 00 00          lea        rcx,[140004000h] ; lea(rcx:64, ds:[5368725504]:0)
0x00000001400014b7  ff 15 13 7e 00 00             call       qword ptr [1400092D0h] ; call(ds:[5368746704]:64)
0x00000001400014bd  4c 8b 0d ec 7d 00 00          mov        r9,[1400092B0h] ; mov(r9:64, ds:[5368746672]:64)
0x00000001400014c4  48 8d 15 48 2b 00 00          lea        rdx,[140004013h] ; lea(rdx:64, ds:[5368725523]:0)
0x00000001400014cb  48 89 d9                      mov        rcx,rbx ; mov(rcx:64, rbx:64)
0x00000001400014ce  48 89 05 6b 6b 00 00          mov        [140008040h],rax ; mov(ds:[5368741952]:64, rax:64)
0x00000001400014d5  4c 89 4d f0                   mov        [rbp-10h],r9 ; mov(ss:[rbp-16]:64, r9:64)
0x00000001400014d9  41 ff d1                      call       r9 ; call(r9:64)
0x00000001400014dc  48 8d 15 46 2b 00 00          lea        rdx,[140004029h] ; lea(rdx:64, ds:[5368725545]:0)
0x00000001400014e3  48 89 d9                      mov        rcx,rbx ; mov(rcx:64, rbx:64)
0x00000001400014e6  48 89 45 f8                   mov        [rbp-8],rax ; mov(ss:[rbp-8]:64, rax:64)
0x00000001400014ea  ff 55 f0                      call       qword ptr [rbp-10h] ; call(ss:[rbp-16]:64)
0x00000001400014ed  4c 8b 45 f8                   mov        r8,[rbp-8] ; mov(r8:64, ss:[rbp-8]:64)
0x00000001400014f1  48 89 05 08 1b 00 00          mov        [140003000h],rax ; mov(ds:[5368721408]:64, rax:64)
0x00000001400014f8  4d 85 c0                      test       r8,r8 ; test(r8:64, r8:64)
0x00000001400014fb  74 11                         je         short 000000014000150Eh ; jcc.eq(@0x14000150e)
0x00000001400014fd  48 8d 15 5c 6b 00 00          lea        rdx,[140008060h] ; lea(rdx:64, ds:[5368741984]:0)
0x0000000140001504  48 8d 0d f5 3a 00 00          lea        rcx,[140005000h] ; lea(rcx:64, ds:[5368729600]:0)
0x000000014000150b  41 ff d0                      call       r8 ; call(r8:64)
0x000000014000150e  48 8d 0d 2b 00 00 00          lea        rcx,[140001540h] ; lea(rcx:64, ds:[5368714560]:0)
0x0000000140001515  48 83 c4 38                   add        rsp,38h ; add(rsp:64, 56#64)
0x0000000140001519  5b                            pop        rbx ; pop(rbx:64)
0x000000014000151a  5d                            pop        rbp ; pop(rbp:64)
0x000000014000151b  e9 40 ff ff ff                jmp        0000000140001460h ; jmp(@0x140001460)
0x0000000140001520  48 8d 05 59 ff ff ff          lea        rax,[140001480h] ; lea(rax:64, ds:[5368714368]:0)
0x0000000140001527  4c 8d 05 42 ff ff ff          lea        r8,[140001470h] ; lea(r8:64, ds:[5368714352]:0)
0x000000014000152e  48 89 05 cb 1a 00 00          mov        [140003000h],rax ; mov(ds:[5368721408]:64, rax:64)
0x0000000140001535  eb c6                         jmp        short 00000001400014FDh ; jmp(@0x1400014fd)
0x0000000140001537  66 0f 1f 84 00 00 00 00 .     nop        [rax+rax] ; nop

;; ============================================================
;; function __gcc_deregister_frame [0x0000000140001540..0x0000000140001580) (64 bytes)
;;   confidence: observed 1.000
;;   sources:   symbol, prologue
;; ============================================================
0x0000000140001540  55                            push       rbp ; push(rbp:64)
0x0000000140001541  48 89 e5                      mov        rbp,rsp ; mov(rbp:64, rsp:64)
0x0000000140001544  48 83 ec 20                   sub        rsp,20h ; sub(rsp:64, 32#64)
0x0000000140001548  48 8b 05 b1 1a 00 00          mov        rax,[140003000h] ; mov(rax:64, ds:[5368721408]:64)
0x000000014000154f  48 85 c0                      test       rax,rax ; test(rax:64, rax:64)
0x0000000140001552  74 09                         je         short 000000014000155Dh ; jcc.eq(@0x14000155d)
0x0000000140001554  48 8d 0d a5 3a 00 00          lea        rcx,[140005000h] ; lea(rcx:64, ds:[5368729600]:0)
0x000000014000155b  ff d0                         call       rax ; call(rax:64)
0x000000014000155d  48 8b 0d dc 6a 00 00          mov        rcx,[140008040h] ; mov(rcx:64, ds:[5368741952]:64)
0x0000000140001564  48 85 c9                      test       rcx,rcx ; test(rcx:64, rcx:64)
0x0000000140001567  74 0f                         je         short 0000000140001578h ; jcc.eq(@0x140001578)
0x0000000140001569  48 83 c4 20                   add        rsp,20h ; add(rsp:64, 32#64)
0x000000014000156d  5d                            pop        rbp ; pop(rbp:64)
0x000000014000156e  48 ff 25 23 7d 00 00          jmp        qword ptr [140009298h] ; jmp(ds:[5368746648]:64)
0x0000000140001575  0f 1f 00                      nop        [rax] ; nop
0x0000000140001578  48 83 c4 20                   add        rsp,20h ; add(rsp:64, 32#64)
0x000000014000157c  5d                            pop        rbp ; pop(rbp:64)
0x000000014000157d  c3                            ret        ; ret
0x000000014000157e  90                            nop        ; nop
0x000000014000157f  90                            nop        ; nop

;; ============================================================
;; function __do_global_dtors [0x0000000140001580..0x00000001400015d0) (80 bytes)
;;   confidence: observed 1.000
;;   sources:   symbol
;; ============================================================
0x0000000140001580  48 83 ec 28                   sub        rsp,28h ; sub(rsp:64, 40#64)
0x0000000140001584  48 8b 05 85 1a 00 00          mov        rax,[140003010h] ; mov(rax:64, ds:[5368721424]:64)
0x000000014000158b  48 8b 00                      mov        rax,[rax] ; mov(rax:64, ds:[rax]:64)
0x000000014000158e  48 85 c0                      test       rax,rax ; test(rax:64, rax:64)
0x0000000140001591  74 2a                         je         short 00000001400015BDh ; jcc.eq(@0x1400015bd)
0x0000000140001593  66 90                         xchg       ax,ax ; nop
0x0000000140001595  66 66 2e 0f 1f 84 00 00 .     nop        [rax+rax] ; nop
0x00000001400015a0  ff d0                         call       rax ; call(rax:64)
0x00000001400015a2  48 8b 05 67 1a 00 00          mov        rax,[140003010h] ; mov(rax:64, ds:[5368721424]:64)
0x00000001400015a9  48 8d 50 08                   lea        rdx,[rax+8] ; lea(rdx:64, ds:[rax+8]:0)
0x00000001400015ad  48 8b 40 08                   mov        rax,[rax+8] ; mov(rax:64, ds:[rax+8]:64)
0x00000001400015b1  48 89 15 58 1a 00 00          mov        [140003010h],rdx ; mov(ds:[5368721424]:64, rdx:64)
0x00000001400015b8  48 85 c0                      test       rax,rax ; test(rax:64, rax:64)
0x00000001400015bb  75 e3                         jne        short 00000001400015A0h ; jcc.ne(@0x1400015a0)
0x00000001400015bd  48 83 c4 28                   add        rsp,28h ; add(rsp:64, 40#64)
0x00000001400015c1  c3                            ret        ; ret
0x00000001400015c2  0f 1f 00                      nop        [rax] ; nop
0x00000001400015c5  66 66 2e 0f 1f 84 00 00 .     nop        [rax+rax] ; nop

;; ============================================================
;; function __do_global_ctors [0x00000001400015d0..0x0000000140001650) (128 bytes)
;;   confidence: observed 1.000
;;   sources:   symbol
;; ============================================================
0x00000001400015d0  56                            push       rsi ; push(rsi:64)
0x00000001400015d1  53                            push       rbx ; push(rbx:64)
0x00000001400015d2  48 83 ec 28                   sub        rsp,28h ; sub(rsp:64, 40#64)
0x00000001400015d6  48 8b 15 13 2e 00 00          mov        rdx,[1400043F0h] ; mov(rdx:64, ds:[5368726512]:64)
0x00000001400015dd  48 8b 02                      mov        rax,[rdx] ; mov(rax:64, ds:[rdx]:64)
0x00000001400015e0  89 c1                         mov        ecx,eax ; mov(ecx:32, eax:32)
0x00000001400015e2  83 f8 ff                      cmp        eax,0FFFFFFFFh ; cmp(eax:32, -1#32)
0x00000001400015e5  74 39                         je         short 0000000140001620h ; jcc.eq(@0x140001620)
0x00000001400015e7  85 c9                         test       ecx,ecx ; test(ecx:32, ecx:32)
0x00000001400015e9  74 20                         je         short 000000014000160Bh ; jcc.eq(@0x14000160b)
0x00000001400015eb  89 c8                         mov        eax,ecx ; mov(eax:32, ecx:32)
0x00000001400015ed  83 e9 01                      sub        ecx,1 ; sub(ecx:32, 1#32)
0x00000001400015f0  48 8d 1c c2                   lea        rbx,[rdx+rax*8] ; lea(rbx:64, ds:[rdx+rax*8]:0)
0x00000001400015f4  48 29 c8                      sub        rax,rcx ; sub(rax:64, rcx:64)
0x00000001400015f7  48 8d 74 c2 f8                lea        rsi,[rdx+rax*8-8] ; lea(rsi:64, ds:[rdx+rax*8-8]:0)
0x00000001400015fc  0f 1f 40 00                   nop        [rax] ; nop
0x0000000140001600  ff 13                         call       qword ptr [rbx] ; call(ds:[rbx]:64)
0x0000000140001602  48 83 eb 08                   sub        rbx,8 ; sub(rbx:64, 8#64)
0x0000000140001606  48 39 f3                      cmp        rbx,rsi ; cmp(rbx:64, rsi:64)
0x0000000140001609  75 f5                         jne        short 0000000140001600h ; jcc.ne(@0x140001600)
0x000000014000160b  48 8d 0d 6e ff ff ff          lea        rcx,[140001580h] ; lea(rcx:64, ds:[5368714624]:0)
0x0000000140001612  48 83 c4 28                   add        rsp,28h ; add(rsp:64, 40#64)
0x0000000140001616  5b                            pop        rbx ; pop(rbx:64)
0x0000000140001617  5e                            pop        rsi ; pop(rsi:64)
0x0000000140001618  e9 43 fe ff ff                jmp        0000000140001460h ; jmp(@0x140001460)
0x000000014000161d  0f 1f 00                      nop        [rax] ; nop
0x0000000140001620  31 c0                         xor        eax,eax ; xor(eax:32, eax:32)
0x0000000140001622  0f 1f 00                      nop        [rax] ; nop
0x0000000140001625  66 66 2e 0f 1f 84 00 00 .     nop        [rax+rax] ; nop
0x0000000140001630  44 8d 40 01                   lea        r8d,[rax+1] ; lea(r8d:32, ds:[rax+1]:0)
0x0000000140001634  89 c1                         mov        ecx,eax ; mov(ecx:32, eax:32)
0x0000000140001636  4c 89 c0                      mov        rax,r8 ; mov(rax:64, r8:64)
0x0000000140001639  4a 83 3c c2 00                cmp        qword ptr [rdx+r8*8],0 ; cmp(ds:[rdx+r8*8]:64, 0#64)
0x000000014000163e  75 f0                         jne        short 0000000140001630h ; jcc.ne(@0x140001630)
0x0000000140001640  eb a5                         jmp        short 00000001400015E7h ; jmp(@0x1400015e7)
0x0000000140001642  0f 1f 00                      nop        [rax] ; nop
0x0000000140001645  66 66 2e 0f 1f 84 00 00 .     nop        [rax+rax] ; nop

;; ============================================================
;; function __main [0x0000000140001650..0x0000000140001670) (32 bytes)
;;   confidence: observed 1.000
;;   sources:   symbol, call
;; ============================================================
0x0000000140001650  8b 05 4a 6a 00 00             mov        eax,[1400080A0h] ; mov(eax:32, ds:[5368742048]:32)
0x0000000140001656  85 c0                         test       eax,eax ; test(eax:32, eax:32)
0x0000000140001658  74 06                         je         short 0000000140001660h ; jcc.eq(@0x140001660)
0x000000014000165a  c3                            ret        ; ret
0x000000014000165b  0f 1f 44 00 00                nop        [rax+rax] ; nop
0x0000000140001660  c7 05 36 6a 00 00 01 00 .     mov        dword ptr [1400080A0h],1 ; mov(ds:[5368742048]:32, 1#32)
0x000000014000166a  e9 61 ff ff ff                jmp        00000001400015D0h ; jmp(@0x1400015d0)
0x000000014000166f  90                            nop        ; nop

;; ============================================================
;; function _setargv [0x0000000140001670..0x0000000140001680) (16 bytes)
;;   confidence: observed 1.000
;;   sources:   symbol, call
;; ============================================================
0x0000000140001670  31 c0                         xor        eax,eax ; xor(eax:32, eax:32)
0x0000000140001672  c3                            ret        ; ret
0x0000000140001673  90                            nop        ; nop
0x0000000140001674  90                            nop        ; nop
0x0000000140001675  90                            nop        ; nop
0x0000000140001676  90                            nop        ; nop
0x0000000140001677  90                            nop        ; nop
0x0000000140001678  90                            nop        ; nop
0x0000000140001679  90                            nop        ; nop
0x000000014000167a  90                            nop        ; nop
0x000000014000167b  90                            nop        ; nop
0x000000014000167c  90                            nop        ; nop
0x000000014000167d  90                            nop        ; nop
0x000000014000167e  90                            nop        ; nop
0x000000014000167f  90                            nop        ; nop

;; ============================================================
;; function __dyn_tls_dtor [0x0000000140001680..0x00000001400016a0) (32 bytes)
;;   confidence: observed 1.000
;;   sources:   symbol
;; ============================================================
0x0000000140001680  83 fa 03                      cmp        edx,3 ; cmp(edx:32, 3#32)
0x0000000140001683  74 0b                         je         short 0000000140001690h ; jcc.eq(@0x140001690)
0x0000000140001685  85 d2                         test       edx,edx ; test(edx:32, edx:32)
0x0000000140001687  74 07                         je         short 0000000140001690h ; jcc.eq(@0x140001690)
0x0000000140001689  c3                            ret        ; ret
0x000000014000168a  66 0f 1f 44 00 00             nop        [rax+rax] ; nop
0x0000000140001690  e9 3b 0c 00 00                jmp        00000001400022D0h ; jmp(@0x1400022d0)
0x0000000140001695  66 66 2e 0f 1f 84 00 00 .     nop        [rax+rax] ; nop

;; ============================================================
;; function __dyn_tls_init [0x00000001400016a0..0x0000000140001720) (128 bytes)
;;   confidence: observed 1.000
;;   sources:   symbol
;; ============================================================
0x00000001400016a0  56                            push       rsi ; push(rsi:64)
0x00000001400016a1  53                            push       rbx ; push(rbx:64)
0x00000001400016a2  48 83 ec 28                   sub        rsp,28h ; sub(rsp:64, 40#64)
0x00000001400016a6  48 8b 05 23 2d 00 00          mov        rax,[1400043D0h] ; mov(rax:64, ds:[5368726480]:64)
0x00000001400016ad  83 38 02                      cmp        dword ptr [rax],2 ; cmp(ds:[rax]:32, 2#32)
0x00000001400016b0  74 06                         je         short 00000001400016B8h ; jcc.eq(@0x1400016b8)
0x00000001400016b2  c7 00 02 00 00 00             mov        dword ptr [rax],2 ; mov(ds:[rax]:32, 2#32)
0x00000001400016b8  83 fa 02                      cmp        edx,2 ; cmp(edx:32, 2#32)
0x00000001400016bb  74 13                         je         short 00000001400016D0h ; jcc.eq(@0x1400016d0)
0x00000001400016bd  83 fa 01                      cmp        edx,1 ; cmp(edx:32, 1#32)
0x00000001400016c0  74 4e                         je         short 0000000140001710h ; jcc.eq(@0x140001710)
0x00000001400016c2  48 83 c4 28                   add        rsp,28h ; add(rsp:64, 40#64)
0x00000001400016c6  5b                            pop        rbx ; pop(rbx:64)
0x00000001400016c7  5e                            pop        rsi ; pop(rsi:64)
0x00000001400016c8  c3                            ret        ; ret
0x00000001400016c9  0f 1f 80 00 00 00 00          nop        [rax] ; nop
0x00000001400016d0  48 8d 1d e9 2e 00 00          lea        rbx,[1400045C0h] ; lea(rbx:64, ds:[5368726976]:0)
0x00000001400016d7  48 8d 35 e2 2e 00 00          lea        rsi,[1400045C0h] ; lea(rsi:64, ds:[5368726976]:0)
0x00000001400016de  48 39 f3                      cmp        rbx,rsi ; cmp(rbx:64, rsi:64)
0x00000001400016e1  74 df                         je         short 00000001400016C2h ; jcc.eq(@0x1400016c2)
0x00000001400016e3  66 90                         xchg       ax,ax ; nop
0x00000001400016e5  66 66 2e 0f 1f 84 00 00 .     nop        [rax+rax] ; nop
0x00000001400016f0  48 8b 03                      mov        rax,[rbx] ; mov(rax:64, ds:[rbx]:64)
0x00000001400016f3  48 85 c0                      test       rax,rax ; test(rax:64, rax:64)
0x00000001400016f6  74 02                         je         short 00000001400016FAh ; jcc.eq(@0x1400016fa)
0x00000001400016f8  ff d0                         call       rax ; call(rax:64)
0x00000001400016fa  48 83 c3 08                   add        rbx,8 ; add(rbx:64, 8#64)
0x00000001400016fe  48 39 f3                      cmp        rbx,rsi ; cmp(rbx:64, rsi:64)
0x0000000140001701  75 ed                         jne        short 00000001400016F0h ; jcc.ne(@0x1400016f0)
0x0000000140001703  48 83 c4 28                   add        rsp,28h ; add(rsp:64, 40#64)
0x0000000140001707  5b                            pop        rbx ; pop(rbx:64)
0x0000000140001708  5e                            pop        rsi ; pop(rsi:64)
0x0000000140001709  c3                            ret        ; ret
0x000000014000170a  66 0f 1f 44 00 00             nop        [rax+rax] ; nop
0x0000000140001710  48 83 c4 28                   add        rsp,28h ; add(rsp:64, 40#64)
0x0000000140001714  5b                            pop        rbx ; pop(rbx:64)
0x0000000140001715  5e                            pop        rsi ; pop(rsi:64)
0x0000000140001716  e9 b5 0b 00 00                jmp        00000001400022D0h ; jmp(@0x1400022d0)
0x000000014000171b  0f 1f 44 00 00                nop        [rax+rax] ; nop

;; ============================================================
;; function __tlregdtor [0x0000000140001720..0x0000000140001730) (16 bytes)
;;   confidence: observed 1.000
;;   sources:   symbol
;; ============================================================
0x0000000140001720  31 c0                         xor        eax,eax ; xor(eax:32, eax:32)
0x0000000140001722  c3                            ret        ; ret
0x0000000140001723  90                            nop        ; nop
0x0000000140001724  90                            nop        ; nop
0x0000000140001725  90                            nop        ; nop
0x0000000140001726  90                            nop        ; nop
0x0000000140001727  90                            nop        ; nop
0x0000000140001728  90                            nop        ; nop
0x0000000140001729  90                            nop        ; nop
0x000000014000172a  90                            nop        ; nop
0x000000014000172b  90                            nop        ; nop
0x000000014000172c  90                            nop        ; nop
0x000000014000172d  90                            nop        ; nop
0x000000014000172e  90                            nop        ; nop
0x000000014000172f  90                            nop        ; nop

;; ============================================================
;; function _matherr [0x0000000140001730..0x0000000140001830) (256 bytes)
;;   confidence: observed 1.000
;;   sources:   symbol
;; ============================================================
0x0000000140001730  56                            push       rsi ; push(rsi:64)
0x0000000140001731  53                            push       rbx ; push(rbx:64)
0x0000000140001732  48 83 ec 78                   sub        rsp,78h ; sub(rsp:64, 120#64)
0x0000000140001736  0f 29 74 24 40                movaps     [rsp+40h],xmm6 ; opaque(movaps)
0x000000014000173b  0f 29 7c 24 50                movaps     [rsp+50h],xmm7 ; opaque(movaps)
0x0000000140001740  44 0f 29 44 24 60             movaps     [rsp+60h],xmm8 ; opaque(movaps)
0x0000000140001746  83 39 06                      cmp        dword ptr [rcx],6 ; cmp(ds:[rcx]:32, 6#32)
0x0000000140001749  0f 87 cd 00 00 00             ja         000000014000181Ch ; jcc.a(@0x14000181c)
0x000000014000174f  8b 01                         mov        eax,[rcx] ; mov(eax:32, ds:[rcx]:32)
0x0000000140001751  48 8d 15 8c 2a 00 00          lea        rdx,[1400041E4h] ; lea(rdx:64, ds:[5368725988]:0)
0x0000000140001758  48 63 04 82                   movsxd     rax,[rdx+rax*4] ; mov(rax:64, ds:[rdx+rax*4]:32)
0x000000014000175c  48 01 d0                      add        rax,rdx ; add(rax:64, rdx:64)
0x000000014000175f  ff e0                         jmp        rax ; jmp(rax:64)
0x0000000140001761  0f 1f 80 00 00 00 00          nop        [rax] ; nop
0x0000000140001768  48 8d 1d 70 29 00 00          lea        rbx,[1400040DFh] ; lea(rbx:64, ds:[5368725727]:0)
0x000000014000176f  f2 44 0f 10 41 20             movsd      xmm8,[rcx+20h] ; opaque(movsd)
0x0000000140001775  f2 0f 10 79 18                movsd      xmm7,[rcx+18h] ; opaque(movsd)
0x000000014000177a  f2 0f 10 71 10                movsd      xmm6,[rcx+10h] ; opaque(movsd)
0x000000014000177f  48 8b 71 08                   mov        rsi,[rcx+8] ; mov(rsi:64, ds:[rcx+8]:64)
0x0000000140001783  b9 02 00 00 00                mov        ecx,2 ; mov(ecx:32, 2#32)
0x0000000140001788  e8 e3 11 00 00                call       0000000140002970h ; call(@0x140002970)
0x000000014000178d  f2 44 0f 11 44 24 30          movsd      [rsp+30h],xmm8 ; opaque(movsd)
0x0000000140001794  49 89 d8                      mov        r8,rbx ; mov(r8:64, rbx:64)
0x0000000140001797  48 8d 15 1a 2a 00 00          lea        rdx,[1400041B8h] ; lea(rdx:64, ds:[5368725944]:0)
0x000000014000179e  f2 0f 11 7c 24 28             movsd      [rsp+28h],xmm7 ; opaque(movsd)
0x00000001400017a4  49 89 f1                      mov        r9,rsi ; mov(r9:64, rsi:64)
0x00000001400017a7  48 89 c1                      mov        rcx,rax ; mov(rcx:64, rax:64)
0x00000001400017aa  f2 0f 11 74 24 20             movsd      [rsp+20h],xmm6 ; opaque(movsd)
0x00000001400017b0  e8 ab 10 00 00                call       0000000140002860h ; call(@0x140002860)
0x00000001400017b5  90                            nop        ; nop
0x00000001400017b6  0f 28 74 24 40                movaps     xmm6,[rsp+40h] ; opaque(movaps)
0x00000001400017bb  0f 28 7c 24 50                movaps     xmm7,[rsp+50h] ; opaque(movaps)
0x00000001400017c0  31 c0                         xor        eax,eax ; xor(eax:32, eax:32)
0x00000001400017c2  44 0f 28 44 24 60             movaps     xmm8,[rsp+60h] ; opaque(movaps)
0x00000001400017c8  48 83 c4 78                   add        rsp,78h ; add(rsp:64, 120#64)
0x00000001400017cc  5b                            pop        rbx ; pop(rbx:64)
0x00000001400017cd  5e                            pop        rsi ; pop(rsi:64)
0x00000001400017ce  c3                            ret        ; ret
0x00000001400017cf  90                            nop        ; nop
0x00000001400017d0  48 8d 1d e9 28 00 00          lea        rbx,[1400040C0h] ; lea(rbx:64, ds:[5368725696]:0)
0x00000001400017d7  eb 96                         jmp        short 000000014000176Fh ; jmp(@0x14000176f)
0x00000001400017d9  0f 1f 80 00 00 00 00          nop        [rax] ; nop
0x00000001400017e0  48 8d 1d 39 29 00 00          lea        rbx,[140004120h] ; lea(rbx:64, ds:[5368725792]:0)
0x00000001400017e7  eb 86                         jmp        short 000000014000176Fh ; jmp(@0x14000176f)
0x00000001400017e9  0f 1f 80 00 00 00 00          nop        [rax] ; nop
0x00000001400017f0  48 8d 1d 09 29 00 00          lea        rbx,[140004100h] ; lea(rbx:64, ds:[5368725760]:0)
0x00000001400017f7  e9 73 ff ff ff                jmp        000000014000176Fh ; jmp(@0x14000176f)
0x00000001400017fc  0f 1f 40 00                   nop        [rax] ; nop
0x0000000140001800  48 8d 1d 69 29 00 00          lea        rbx,[140004170h] ; lea(rbx:64, ds:[5368725872]:0)
0x0000000140001807  e9 63 ff ff ff                jmp        000000014000176Fh ; jmp(@0x14000176f)
0x000000014000180c  0f 1f 40 00                   nop        [rax] ; nop
0x0000000140001810  48 8d 1d 31 29 00 00          lea        rbx,[140004148h] ; lea(rbx:64, ds:[5368725832]:0)
0x0000000140001817  e9 53 ff ff ff                jmp        000000014000176Fh ; jmp(@0x14000176f)
0x000000014000181c  48 8d 1d 83 29 00 00          lea        rbx,[1400041A6h] ; lea(rbx:64, ds:[5368725926]:0)
0x0000000140001823  e9 47 ff ff ff                jmp        000000014000176Fh ; jmp(@0x14000176f)
0x0000000140001828  90                            nop        ; nop
0x0000000140001829  90                            nop        ; nop
0x000000014000182a  90                            nop        ; nop
0x000000014000182b  90                            nop        ; nop
0x000000014000182c  90                            nop        ; nop
0x000000014000182d  90                            nop        ; nop
0x000000014000182e  90                            nop        ; nop
0x000000014000182f  90                            nop        ; nop

;; ============================================================
;; function __report_error [0x0000000140001830..0x0000000140001890) (96 bytes)
;;   confidence: observed 1.000
;;   sources:   symbol, call
;; ============================================================
0x0000000140001830  56                            push       rsi ; push(rsi:64)
0x0000000140001831  53                            push       rbx ; push(rbx:64)
0x0000000140001832  48 83 ec 38                   sub        rsp,38h ; sub(rsp:64, 56#64)
0x0000000140001836  48 89 cb                      mov        rbx,rcx ; mov(rbx:64, rcx:64)
0x0000000140001839  48 8d 44 24 58                lea        rax,[rsp+58h] ; lea(rax:64, ss:[rsp+88]:0)
0x000000014000183e  b9 02 00 00 00                mov        ecx,2 ; mov(ecx:32, 2#32)
0x0000000140001843  4c 89 44 24 60                mov        [rsp+60h],r8 ; mov(ss:[rsp+96]:64, r8:64)
0x0000000140001848  4c 89 4c 24 68                mov        [rsp+68h],r9 ; mov(ss:[rsp+104]:64, r9:64)
0x000000014000184d  48 89 54 24 58                mov        [rsp+58h],rdx ; mov(ss:[rsp+88]:64, rdx:64)
0x0000000140001852  48 89 44 24 28                mov        [rsp+28h],rax ; mov(ss:[rsp+40]:64, rax:64)
0x0000000140001857  e8 14 11 00 00                call       0000000140002970h ; call(@0x140002970)
0x000000014000185c  48 8d 15 9d 29 00 00          lea        rdx,[140004200h] ; lea(rdx:64, ds:[5368726016]:0)
0x0000000140001863  48 89 c1                      mov        rcx,rax ; mov(rcx:64, rax:64)
0x0000000140001866  e8 f5 0f 00 00                call       0000000140002860h ; call(@0x140002860)
0x000000014000186b  48 8b 74 24 28                mov        rsi,[rsp+28h] ; mov(rsi:64, ss:[rsp+40]:64)
0x0000000140001870  b9 02 00 00 00                mov        ecx,2 ; mov(ecx:32, 2#32)
0x0000000140001875  e8 f6 10 00 00                call       0000000140002970h ; call(@0x140002970)
0x000000014000187a  48 89 da                      mov        rdx,rbx ; mov(rdx:64, rbx:64)
0x000000014000187d  49 89 f0                      mov        r8,rsi ; mov(r8:64, rsi:64)
0x0000000140001880  48 89 c1                      mov        rcx,rax ; mov(rcx:64, rax:64)
0x0000000140001883  e8 98 0f 00 00                call       0000000140002820h ; call(@0x140002820)
0x0000000140001888  e8 6b 11 00 00                call       00000001400029F8h ; call(@0x1400029f8)
0x000000014000188d  90                            nop        ; nop
0x000000014000188e  66 90                         xchg       ax,ax ; nop

;; ============================================================
;; function mark_section_writable [0x0000000140001890..0x0000000140001a00) (368 bytes)
;;   confidence: observed 1.000
;;   sources:   symbol, call
;; ============================================================
0x0000000140001890  57                            push       rdi ; push(rdi:64)
0x0000000140001891  56                            push       rsi ; push(rsi:64)
0x0000000140001892  53                            push       rbx ; push(rbx:64)
0x0000000140001893  48 83 ec 50                   sub        rsp,50h ; sub(rsp:64, 80#64)
0x0000000140001897  48 63 35 66 68 00 00          movsxd     rsi,[140008104h] ; mov(rsi:64, ds:[5368742148]:32)
0x000000014000189e  48 89 cb                      mov        rbx,rcx ; mov(rbx:64, rcx:64)
0x00000001400018a1  85 f6                         test       esi,esi ; test(esi:32, esi:32)
0x00000001400018a3  0f 8e 17 01 00 00             jle        00000001400019C0h ; jcc.le(@0x1400019c0)
0x00000001400018a9  48 8b 05 58 68 00 00          mov        rax,[140008108h] ; mov(rax:64, ds:[5368742152]:64)
0x00000001400018b0  45 31 c9                      xor        r9d,r9d ; xor(r9d:32, r9d:32)
0x00000001400018b3  48 83 c0 18                   add        rax,18h ; add(rax:64, 24#64)
0x00000001400018b7  66 0f 1f 84 00 00 00 00 .     nop        [rax+rax] ; nop
0x00000001400018c0  4c 8b 00                      mov        r8,[rax] ; mov(r8:64, ds:[rax]:64)
0x00000001400018c3  4c 39 c3                      cmp        rbx,r8 ; cmp(rbx:64, r8:64)
0x00000001400018c6  72 13                         jb         short 00000001400018DBh ; jcc.b(@0x1400018db)
0x00000001400018c8  48 8b 50 08                   mov        rdx,[rax+8] ; mov(rdx:64, ds:[rax+8]:64)
0x00000001400018cc  8b 52 08                      mov        edx,[rdx+8] ; mov(edx:32, ds:[rdx+8]:32)
0x00000001400018cf  49 01 d0                      add        r8,rdx ; add(r8:64, rdx:64)
0x00000001400018d2  4c 39 c3                      cmp        rbx,r8 ; cmp(rbx:64, r8:64)
0x00000001400018d5  0f 82 8a 00 00 00             jb         0000000140001965h ; jcc.b(@0x140001965)
0x00000001400018db  41 83 c1 01                   add        r9d,1 ; add(r9d:32, 1#32)
0x00000001400018df  48 83 c0 28                   add        rax,28h ; add(rax:64, 40#64)
0x00000001400018e3  41 39 f1                      cmp        r9d,esi ; cmp(r9d:32, esi:32)
0x00000001400018e6  75 d8                         jne        short 00000001400018C0h ; jcc.ne(@0x1400018c0)
0x00000001400018e8  48 89 d9                      mov        rcx,rbx ; mov(rcx:64, rbx:64)
0x00000001400018eb  e8 20 0c 00 00                call       0000000140002510h ; call(@0x140002510)
0x00000001400018f0  48 89 c7                      mov        rdi,rax ; mov(rdi:64, rax:64)
0x00000001400018f3  48 85 c0                      test       rax,rax ; test(rax:64, rax:64)
0x00000001400018f6  0f 84 e6 00 00 00             je         00000001400019E2h ; jcc.eq(@0x1400019e2)
0x00000001400018fc  48 8b 05 05 68 00 00          mov        rax,[140008108h] ; mov(rax:64, ds:[5368742152]:64)
0x0000000140001903  48 8d 1c b6                   lea        rbx,[rsi+rsi*4] ; lea(rbx:64, ds:[rsi+rsi*4]:0)
0x0000000140001907  48 c1 e3 03                   shl        rbx,3 ; shl(rbx:64, 3#8)
0x000000014000190b  48 01 d8                      add        rax,rbx ; add(rax:64, rbx:64)
0x000000014000190e  48 89 78 20                   mov        [rax+20h],rdi ; mov(ds:[rax+32]:64, rdi:64)
0x0000000140001912  c7 00 00 00 00 00             mov        dword ptr [rax],0 ; mov(ds:[rax]:32, 0#32)
0x0000000140001918  e8 33 0d 00 00                call       0000000140002650h ; call(@0x140002650)
0x000000014000191d  8b 57 0c                      mov        edx,[rdi+0Ch] ; mov(edx:32, ds:[rdi+12]:32)
0x0000000140001920  41 b8 30 00 00 00             mov        r8d,30h ; mov(r8d:32, 48#32)
0x0000000140001926  48 8d 0c 10                   lea        rcx,[rax+rdx] ; lea(rcx:64, ds:[rax+rdx*1]:0)
0x000000014000192a  48 8b 05 d7 67 00 00          mov        rax,[140008108h] ; mov(rax:64, ds:[5368742152]:64)
0x0000000140001931  48 8d 54 24 20                lea        rdx,[rsp+20h] ; lea(rdx:64, ss:[rsp+32]:0)
0x0000000140001936  48 89 4c 18 18                mov        [rax+rbx+18h],rcx ; mov(ds:[rax+rbx*1+24]:64, rcx:64)
0x000000014000193b  ff 15 b7 79 00 00             call       qword ptr [1400092F8h] ; call(ds:[5368746744]:64)
0x0000000140001941  48 85 c0                      test       rax,rax ; test(rax:64, rax:64)
0x0000000140001944  0f 84 7d 00 00 00             je         00000001400019C7h ; jcc.eq(@0x1400019c7)
0x000000014000194a  8b 44 24 44                   mov        eax,[rsp+44h] ; mov(eax:32, ss:[rsp+68]:32)
0x000000014000194e  8d 50 fc                      lea        edx,[rax-4] ; lea(edx:32, ds:[rax-4]:0)
0x0000000140001951  83 e2 fb                      and        edx,0FFFFFFFBh ; and(edx:32, -5#32)
0x0000000140001954  74 08                         je         short 000000014000195Eh ; jcc.eq(@0x14000195e)
0x0000000140001956  8d 50 c0                      lea        edx,[rax-40h] ; lea(edx:32, ds:[rax-64]:0)
0x0000000140001959  83 e2 bf                      and        edx,0FFFFFFBFh ; and(edx:32, -65#32)
0x000000014000195c  75 12                         jne        short 0000000140001970h ; jcc.ne(@0x140001970)
0x000000014000195e  83 05 9f 67 00 00 01          add        dword ptr [140008104h],1 ; add(ds:[5368742148]:32, 1#32)
0x0000000140001965  48 83 c4 50                   add        rsp,50h ; add(rsp:64, 80#64)
0x0000000140001969  5b                            pop        rbx ; pop(rbx:64)
0x000000014000196a  5e                            pop        rsi ; pop(rsi:64)
0x000000014000196b  5f                            pop        rdi ; pop(rdi:64)
0x000000014000196c  c3                            ret        ; ret
0x000000014000196d  0f 1f 00                      nop        [rax] ; nop
0x0000000140001970  83 f8 02                      cmp        eax,2 ; cmp(eax:32, 2#32)
0x0000000140001973  48 8b 4c 24 20                mov        rcx,[rsp+20h] ; mov(rcx:64, ss:[rsp+32]:64)
0x0000000140001978  48 8b 54 24 38                mov        rdx,[rsp+38h] ; mov(rdx:64, ss:[rsp+56]:64)
0x000000014000197d  41 b8 40 00 00 00             mov        r8d,40h ; mov(r8d:32, 64#32)
0x0000000140001983  b8 04 00 00 00                mov        eax,4 ; mov(eax:32, 4#32)
0x0000000140001988  44 0f 44 c0                   cmove      r8d,eax ; opaque(cmove)
0x000000014000198c  48 03 1d 75 67 00 00          add        rbx,[140008108h] ; add(rbx:64, ds:[5368742152]:64)
0x0000000140001993  48 89 4b 08                   mov        [rbx+8],rcx ; mov(ds:[rbx+8]:64, rcx:64)
0x0000000140001997  49 89 d9                      mov        r9,rbx ; mov(r9:64, rbx:64)
0x000000014000199a  48 89 53 10                   mov        [rbx+10h],rdx ; mov(ds:[rbx+16]:64, rdx:64)
0x000000014000199e  ff 15 4c 79 00 00             call       qword ptr [1400092F0h] ; call(ds:[5368746736]:64)
0x00000001400019a4  85 c0                         test       eax,eax ; test(eax:32, eax:32)
0x00000001400019a6  75 b6                         jne        short 000000014000195Eh ; jcc.ne(@0x14000195e)
0x00000001400019a8  ff 15 f2 78 00 00             call       qword ptr [1400092A0h] ; call(ds:[5368746656]:64)
0x00000001400019ae  48 8d 0d c3 28 00 00          lea        rcx,[140004278h] ; lea(rcx:64, ds:[5368726136]:0)
0x00000001400019b5  89 c2                         mov        edx,eax ; mov(edx:32, eax:32)
0x00000001400019b7  e8 74 fe ff ff                call       0000000140001830h ; call(@0x140001830)
0x00000001400019bc  0f 1f 40 00                   nop        [rax] ; nop
0x00000001400019c0  31 f6                         xor        esi,esi ; xor(esi:32, esi:32)
0x00000001400019c2  e9 21 ff ff ff                jmp        00000001400018E8h ; jmp(@0x1400018e8)
0x00000001400019c7  48 8b 05 3a 67 00 00          mov        rax,[140008108h] ; mov(rax:64, ds:[5368742152]:64)
0x00000001400019ce  8b 57 08                      mov        edx,[rdi+8] ; mov(edx:32, ds:[rdi+8]:32)
0x00000001400019d1  48 8d 0d 68 28 00 00          lea        rcx,[140004240h] ; lea(rcx:64, ds:[5368726080]:0)
0x00000001400019d8  4c 8b 44 18 18                mov        r8,[rax+rbx+18h] ; mov(r8:64, ds:[rax+rbx*1+24]:64)
0x00000001400019dd  e8 4e fe ff ff                call       0000000140001830h ; call(@0x140001830)
0x00000001400019e2  48 89 da                      mov        rdx,rbx ; mov(rdx:64, rbx:64)
0x00000001400019e5  48 8d 0d 34 28 00 00          lea        rcx,[140004220h] ; lea(rcx:64, ds:[5368726048]:0)
0x00000001400019ec  e8 3f fe ff ff                call       0000000140001830h ; call(@0x140001830)
0x00000001400019f1  90                            nop        ; nop
0x00000001400019f2  0f 1f 00                      nop        [rax] ; nop
0x00000001400019f5  66 66 2e 0f 1f 84 00 00 .     nop        [rax+rax] ; nop

;; ============================================================
;; function _pei386_runtime_relocator [0x0000000140001a00..0x0000000140001d90) (912 bytes)
;;   confidence: observed 1.000
;;   sources:   symbol, call
;; ============================================================
0x0000000140001a00  55                            push       rbp ; push(rbp:64)
0x0000000140001a01  41 57                         push       r15 ; push(r15:64)
0x0000000140001a03  41 56                         push       r14 ; push(r14:64)
0x0000000140001a05  41 55                         push       r13 ; push(r13:64)
0x0000000140001a07  41 54                         push       r12 ; push(r12:64)
0x0000000140001a09  57                            push       rdi ; push(rdi:64)
0x0000000140001a0a  56                            push       rsi ; push(rsi:64)
0x0000000140001a0b  53                            push       rbx ; push(rbx:64)
0x0000000140001a0c  48 83 ec 48                   sub        rsp,48h ; sub(rsp:64, 72#64)
0x0000000140001a10  48 8d 6c 24 40                lea        rbp,[rsp+40h] ; lea(rbp:64, ss:[rsp+64]:0)
0x0000000140001a15  8b 35 e5 66 00 00             mov        esi,[140008100h] ; mov(esi:32, ds:[5368742144]:32)
0x0000000140001a1b  85 f6                         test       esi,esi ; test(esi:32, esi:32)
0x0000000140001a1d  74 11                         je         short 0000000140001A30h ; jcc.eq(@0x140001a30)
0x0000000140001a1f  48 8d 65 08                   lea        rsp,[rbp+8] ; lea(rsp:64, ss:[rbp+8]:0)
0x0000000140001a23  5b                            pop        rbx ; pop(rbx:64)
0x0000000140001a24  5e                            pop        rsi ; pop(rsi:64)
0x0000000140001a25  5f                            pop        rdi ; pop(rdi:64)
0x0000000140001a26  41 5c                         pop        r12 ; pop(r12:64)
0x0000000140001a28  41 5d                         pop        r13 ; pop(r13:64)
0x0000000140001a2a  41 5e                         pop        r14 ; pop(r14:64)
0x0000000140001a2c  41 5f                         pop        r15 ; pop(r15:64)
0x0000000140001a2e  5d                            pop        rbp ; pop(rbp:64)
0x0000000140001a2f  c3                            ret        ; ret
0x0000000140001a30  c7 05 c6 66 00 00 01 00 .     mov        dword ptr [140008100h],1 ; mov(ds:[5368742144]:32, 1#32)
0x0000000140001a3a  e8 51 0b 00 00                call       0000000140002590h ; call(@0x140002590)
0x0000000140001a3f  48 98                         cdqe       ; opaque(cdqe)
0x0000000140001a41  48 8d 04 80                   lea        rax,[rax+rax*4] ; lea(rax:64, ds:[rax+rax*4]:0)
0x0000000140001a45  48 8d 04 c5 0f 00 00 00       lea        rax,[rax*8+0Fh] ; lea(rax:64, ds:[rax*8+15]:0)
0x0000000140001a4d  48 83 e0 f0                   and        rax,0FFFFFFFFFFFFFFF0h ; and(rax:64, -16#64)
0x0000000140001a51  e8 8a 0d 00 00                call       00000001400027E0h ; call(@0x1400027e0)
0x0000000140001a56  48 8b 3d b3 29 00 00          mov        rdi,[140004410h] ; mov(rdi:64, ds:[5368726544]:64)
0x0000000140001a5d  48 8b 1d bc 29 00 00          mov        rbx,[140004420h] ; mov(rbx:64, ds:[5368726560]:64)
0x0000000140001a64  48 29 c4                      sub        rsp,rax ; sub(rsp:64, rax:64)
0x0000000140001a67  c7 05 93 66 00 00 00 00 .     mov        dword ptr [140008104h],0 ; mov(ds:[5368742148]:32, 0#32)
0x0000000140001a71  48 8d 44 24 30                lea        rax,[rsp+30h] ; lea(rax:64, ss:[rsp+48]:0)
0x0000000140001a76  48 89 05 8b 66 00 00          mov        [140008108h],rax ; mov(ds:[5368742152]:64, rax:64)
0x0000000140001a7d  48 89 f8                      mov        rax,rdi ; mov(rax:64, rdi:64)
0x0000000140001a80  48 29 d8                      sub        rax,rbx ; sub(rax:64, rbx:64)
0x0000000140001a83  48 83 f8 07                   cmp        rax,7 ; cmp(rax:64, 7#64)
0x0000000140001a87  7e 96                         jle        short 0000000140001A1Fh ; jcc.le(@0x140001a1f)
0x0000000140001a89  48 83 f8 0b                   cmp        rax,0Bh ; cmp(rax:64, 11#64)
0x0000000140001a8d  0f 8f 85 01 00 00             jg         0000000140001C18h ; jcc.gt(@0x140001c18)
0x0000000140001a93  8b 13                         mov        edx,[rbx] ; mov(edx:32, ds:[rbx]:32)
0x0000000140001a95  85 d2                         test       edx,edx ; test(edx:32, edx:32)
0x0000000140001a97  0f 85 90 01 00 00             jne        0000000140001C2Dh ; jcc.ne(@0x140001c2d)
0x0000000140001a9d  8b 43 04                      mov        eax,[rbx+4] ; mov(eax:32, ds:[rbx+4]:32)
0x0000000140001aa0  85 c0                         test       eax,eax ; test(eax:32, eax:32)
0x0000000140001aa2  0f 85 85 01 00 00             jne        0000000140001C2Dh ; jcc.ne(@0x140001c2d)
0x0000000140001aa8  8b 53 08                      mov        edx,[rbx+8] ; mov(edx:32, ds:[rbx+8]:32)
0x0000000140001aab  83 fa 01                      cmp        edx,1 ; cmp(edx:32, 1#32)
0x0000000140001aae  0f 85 cf 02 00 00             jne        0000000140001D83h ; jcc.ne(@0x140001d83)
0x0000000140001ab4  48 83 c3 0c                   add        rbx,0Ch ; add(rbx:64, 12#64)
0x0000000140001ab8  4c 8b 35 41 29 00 00          mov        r14,[140004400h] ; mov(r14:64, ds:[5368726528]:64)
0x0000000140001abf  4c 8d 65 f8                   lea        r12,[rbp-8] ; lea(r12:64, ss:[rbp-8]:0)
0x0000000140001ac3  48 39 fb                      cmp        rbx,rdi ; cmp(rbx:64, rdi:64)
0x0000000140001ac6  72 7c                         jb         short 0000000140001B44h ; jcc.b(@0x140001b44)
0x0000000140001ac8  e9 52 ff ff ff                jmp        0000000140001A1Fh ; jmp(@0x140001a1f)
0x0000000140001acd  0f 1f 00                      nop        [rax] ; nop
0x0000000140001ad0  83 fa 08                      cmp        edx,8 ; cmp(edx:32, 8#32)
0x0000000140001ad3  0f 84 1f 02 00 00             je         0000000140001CF8h ; jcc.eq(@0x140001cf8)
0x0000000140001ad9  83 fa 10                      cmp        edx,10h ; cmp(edx:32, 16#32)
0x0000000140001adc  0f 85 79 02 00 00             jne        0000000140001D5Bh ; jcc.ne(@0x140001d5b)
0x0000000140001ae2  41 0f b7 07                   movzx      eax,word ptr [r15] ; mov(eax:32, ds:[r15]:16)
0x0000000140001ae6  66 85 c0                      test       ax,ax ; test(ax:16, ax:16)
0x0000000140001ae9  79 06                         jns        short 0000000140001AF1h ; jcc.ns(@0x140001af1)
0x0000000140001aeb  48 0d 00 00 ff ff             or         rax,0FFFFFFFFFFFF0000h ; or(rax:64, -65536#64)
0x0000000140001af1  4c 29 c0                      sub        rax,r8 ; sub(rax:64, r8:64)
0x0000000140001af4  4c 01 c8                      add        rax,r9 ; add(rax:64, r9:64)
0x0000000140001af7  81 e1 c0 00 00 00             and        ecx,0C0h ; and(ecx:32, 192#32)
0x0000000140001afd  48 89 45 f8                   mov        [rbp-8],rax ; mov(ss:[rbp-8]:64, rax:64)
0x0000000140001b01  75 18                         jne        short 0000000140001B1Bh ; jcc.ne(@0x140001b1b)
0x0000000140001b03  48 3d ff ff 00 00             cmp        rax,0FFFFh ; cmp(rax:64, 65535#64)
0x0000000140001b09  0f 8f 60 02 00 00             jg         0000000140001D6Fh ; jcc.gt(@0x140001d6f)
0x0000000140001b0f  48 3d 00 80 ff ff             cmp        rax,0FFFFFFFFFFFF8000h ; cmp(rax:64, -32768#64)
0x0000000140001b15  0f 8c 54 02 00 00             jl         0000000140001D6Fh ; jcc.lt(@0x140001d6f)
0x0000000140001b1b  4c 89 f9                      mov        rcx,r15 ; mov(rcx:64, r15:64)
0x0000000140001b1e  4d 89 e5                      mov        r13,r12 ; mov(r13:64, r12:64)
0x0000000140001b21  e8 6a fd ff ff                call       0000000140001890h ; call(@0x140001890)
0x0000000140001b26  41 b8 02 00 00 00             mov        r8d,2 ; mov(r8d:32, 2#32)
0x0000000140001b2c  4c 89 e2                      mov        rdx,r12 ; mov(rdx:64, r12:64)
0x0000000140001b2f  4c 89 f9                      mov        rcx,r15 ; mov(rcx:64, r15:64)
0x0000000140001b32  e8 e1 0e 00 00                call       0000000140002A18h ; call(@0x140002a18)
0x0000000140001b37  48 83 c3 0c                   add        rbx,0Ch ; add(rbx:64, 12#64)
0x0000000140001b3b  48 39 fb                      cmp        rbx,rdi ; cmp(rbx:64, rdi:64)
0x0000000140001b3e  0f 83 7c 00 00 00             jae        0000000140001BC0h ; jcc.ae(@0x140001bc0)
0x0000000140001b44  44 8b 03                      mov        r8d,[rbx] ; mov(r8d:32, ds:[rbx]:32)
0x0000000140001b47  8b 4b 08                      mov        ecx,[rbx+8] ; mov(ecx:32, ds:[rbx+8]:32)
0x0000000140001b4a  44 8b 7b 04                   mov        r15d,[rbx+4] ; mov(r15d:32, ds:[rbx+4]:32)
0x0000000140001b4e  4d 01 f0                      add        r8,r14 ; add(r8:64, r14:64)
0x0000000140001b51  0f b6 d1                      movzx      edx,cl ; mov(edx:32, cl:8)
0x0000000140001b54  4d 8b 08                      mov        r9,[r8] ; mov(r9:64, ds:[r8]:64)
0x0000000140001b57  4d 01 f7                      add        r15,r14 ; add(r15:64, r14:64)
0x0000000140001b5a  83 fa 20                      cmp        edx,20h ; cmp(edx:32, 32#32)
0x0000000140001b5d  0f 84 2d 01 00 00             je         0000000140001C90h ; jcc.eq(@0x140001c90)
0x0000000140001b63  0f 86 67 ff ff ff             jbe        0000000140001AD0h ; jcc.be(@0x140001ad0)
0x0000000140001b69  83 fa 40                      cmp        edx,40h ; cmp(edx:32, 64#32)
0x0000000140001b6c  0f 85 e9 01 00 00             jne        0000000140001D5Bh ; jcc.ne(@0x140001d5b)
0x0000000140001b72  49 8b 07                      mov        rax,[r15] ; mov(rax:64, ds:[r15]:64)
0x0000000140001b75  4c 29 c0                      sub        rax,r8 ; sub(rax:64, r8:64)
0x0000000140001b78  4c 01 c8                      add        rax,r9 ; add(rax:64, r9:64)
0x0000000140001b7b  81 e1 c0 00 00 00             and        ecx,0C0h ; and(ecx:32, 192#32)
0x0000000140001b81  48 89 45 f8                   mov        [rbp-8],rax ; mov(ss:[rbp-8]:64, rax:64)
0x0000000140001b85  75 09                         jne        short 0000000140001B90h ; jcc.ne(@0x140001b90)
0x0000000140001b87  48 85 c0                      test       rax,rax ; test(rax:64, rax:64)
0x0000000140001b8a  0f 89 df 01 00 00             jns        0000000140001D6Fh ; jcc.ns(@0x140001d6f)
0x0000000140001b90  4c 89 f9                      mov        rcx,r15 ; mov(rcx:64, r15:64)
0x0000000140001b93  48 83 c3 0c                   add        rbx,0Ch ; add(rbx:64, 12#64)
0x0000000140001b97  4d 89 e5                      mov        r13,r12 ; mov(r13:64, r12:64)
0x0000000140001b9a  e8 f1 fc ff ff                call       0000000140001890h ; call(@0x140001890)
0x0000000140001b9f  41 b8 08 00 00 00             mov        r8d,8 ; mov(r8d:32, 8#32)
0x0000000140001ba5  4c 89 e2                      mov        rdx,r12 ; mov(rdx:64, r12:64)
0x0000000140001ba8  4c 89 f9                      mov        rcx,r15 ; mov(rcx:64, r15:64)
0x0000000140001bab  e8 68 0e 00 00                call       0000000140002A18h ; call(@0x140002a18)
0x0000000140001bb0  48 39 fb                      cmp        rbx,rdi ; cmp(rbx:64, rdi:64)
0x0000000140001bb3  72 8f                         jb         short 0000000140001B44h ; jcc.b(@0x140001b44)
0x0000000140001bb5  66 66 2e 0f 1f 84 00 00 .     nop        [rax+rax] ; nop
0x0000000140001bc0  8b 05 3e 65 00 00             mov        eax,[140008104h] ; mov(eax:32, ds:[5368742148]:32)
0x0000000140001bc6  85 c0                         test       eax,eax ; test(eax:32, eax:32)
0x0000000140001bc8  0f 8e 51 fe ff ff             jle        0000000140001A1Fh ; jcc.le(@0x140001a1f)
0x0000000140001bce  48 8b 3d 1b 77 00 00          mov        rdi,[1400092F0h] ; mov(rdi:64, ds:[5368746736]:64)
0x0000000140001bd5  31 db                         xor        ebx,ebx ; xor(ebx:32, ebx:32)
0x0000000140001bd7  66 0f 1f 84 00 00 00 00 .     nop        [rax+rax] ; nop
0x0000000140001be0  48 8b 05 21 65 00 00          mov        rax,[140008108h] ; mov(rax:64, ds:[5368742152]:64)
0x0000000140001be7  48 01 d8                      add        rax,rbx ; add(rax:64, rbx:64)
0x0000000140001bea  44 8b 00                      mov        r8d,[rax] ; mov(r8d:32, ds:[rax]:32)
0x0000000140001bed  45 85 c0                      test       r8d,r8d ; test(r8d:32, r8d:32)
0x0000000140001bf0  74 0d                         je         short 0000000140001BFFh ; jcc.eq(@0x140001bff)
0x0000000140001bf2  48 8b 50 10                   mov        rdx,[rax+10h] ; mov(rdx:64, ds:[rax+16]:64)
0x0000000140001bf6  48 8b 48 08                   mov        rcx,[rax+8] ; mov(rcx:64, ds:[rax+8]:64)
0x0000000140001bfa  4d 89 e9                      mov        r9,r13 ; mov(r9:64, r13:64)
0x0000000140001bfd  ff d7                         call       rdi ; call(rdi:64)
0x0000000140001bff  83 c6 01                      add        esi,1 ; add(esi:32, 1#32)
0x0000000140001c02  48 83 c3 28                   add        rbx,28h ; add(rbx:64, 40#64)
0x0000000140001c06  3b 35 f8 64 00 00             cmp        esi,[140008104h] ; cmp(esi:32, ds:[5368742148]:32)
0x0000000140001c0c  7c d2                         jl         short 0000000140001BE0h ; jcc.lt(@0x140001be0)
0x0000000140001c0e  e9 0c fe ff ff                jmp        0000000140001A1Fh ; jmp(@0x140001a1f)
0x0000000140001c13  0f 1f 44 00 00                nop        [rax+rax] ; nop
0x0000000140001c18  44 8b 0b                      mov        r9d,[rbx] ; mov(r9d:32, ds:[rbx]:32)
0x0000000140001c1b  45 85 c9                      test       r9d,r9d ; test(r9d:32, r9d:32)
0x0000000140001c1e  75 0d                         jne        short 0000000140001C2Dh ; jcc.ne(@0x140001c2d)
0x0000000140001c20  44 8b 43 04                   mov        r8d,[rbx+4] ; mov(r8d:32, ds:[rbx+4]:32)
0x0000000140001c24  45 85 c0                      test       r8d,r8d ; test(r8d:32, r8d:32)
0x0000000140001c27  0f 84 1a 01 00 00             je         0000000140001D47h ; jcc.eq(@0x140001d47)
0x0000000140001c2d  48 39 fb                      cmp        rbx,rdi ; cmp(rbx:64, rdi:64)
0x0000000140001c30  0f 83 e9 fd ff ff             jae        0000000140001A1Fh ; jcc.ae(@0x140001a1f)
0x0000000140001c36  4c 8b 35 c3 27 00 00          mov        r14,[140004400h] ; mov(r14:64, ds:[5368726528]:64)
0x0000000140001c3d  4c 8d 6d f8                   lea        r13,[rbp-8] ; lea(r13:64, ss:[rbp-8]:0)
0x0000000140001c41  0f 1f 40 00                   nop        [rax] ; nop
0x0000000140001c45  66 66 2e 0f 1f 84 00 00 .     nop        [rax+rax] ; nop
0x0000000140001c50  44 8b 63 04                   mov        r12d,[rbx+4] ; mov(r12d:32, ds:[rbx+4]:32)
0x0000000140001c54  8b 03                         mov        eax,[rbx] ; mov(eax:32, ds:[rbx]:32)
0x0000000140001c56  48 83 c3 08                   add        rbx,8 ; add(rbx:64, 8#64)
0x0000000140001c5a  43 03 04 26                   add        eax,[r14+r12] ; add(eax:32, ds:[r14+r12*1]:32)
0x0000000140001c5e  4b 8d 0c 34                   lea        rcx,[r12+r14] ; lea(rcx:64, ds:[r12+r14*1]:0)
0x0000000140001c62  89 45 f8                      mov        [rbp-8],eax ; mov(ss:[rbp-8]:32, eax:32)
0x0000000140001c65  e8 26 fc ff ff                call       0000000140001890h ; call(@0x140001890)
0x0000000140001c6a  41 b8 04 00 00 00             mov        r8d,4 ; mov(r8d:32, 4#32)
0x0000000140001c70  4c 89 ea                      mov        rdx,r13 ; mov(rdx:64, r13:64)
0x0000000140001c73  4b 8d 0c 34                   lea        rcx,[r12+r14] ; lea(rcx:64, ds:[r12+r14*1]:0)
0x0000000140001c77  e8 9c 0d 00 00                call       0000000140002A18h ; call(@0x140002a18)
0x0000000140001c7c  48 39 fb                      cmp        rbx,rdi ; cmp(rbx:64, rdi:64)
0x0000000140001c7f  72 cf                         jb         short 0000000140001C50h ; jcc.b(@0x140001c50)
0x0000000140001c81  e9 3a ff ff ff                jmp        0000000140001BC0h ; jmp(@0x140001bc0)
0x0000000140001c86  66 2e 0f 1f 84 00 00 00 .     nop        [rax+rax] ; nop
0x0000000140001c90  41 8b 07                      mov        eax,[r15] ; mov(eax:32, ds:[r15]:32)
0x0000000140001c93  85 c0                         test       eax,eax ; test(eax:32, eax:32)
0x0000000140001c95  79 0d                         jns        short 0000000140001CA4h ; jcc.ns(@0x140001ca4)
0x0000000140001c97  49 bb 00 00 00 00 ff ff .     mov        r11,0FFFFFFFF00000000h ; mov(r11:64, -4294967296#64)
0x0000000140001ca1  4c 09 d8                      or         rax,r11 ; or(rax:64, r11:64)
0x0000000140001ca4  4c 29 c0                      sub        rax,r8 ; sub(rax:64, r8:64)
0x0000000140001ca7  4c 01 c8                      add        rax,r9 ; add(rax:64, r9:64)
0x0000000140001caa  81 e1 c0 00 00 00             and        ecx,0C0h ; and(ecx:32, 192#32)
0x0000000140001cb0  48 89 45 f8                   mov        [rbp-8],rax ; mov(ss:[rbp-8]:64, rax:64)
0x0000000140001cb4  75 1a                         jne        short 0000000140001CD0h ; jcc.ne(@0x140001cd0)
0x0000000140001cb6  b9 ff ff ff ff                mov        ecx,0FFFFFFFFh ; mov(ecx:32, -1#32)
0x0000000140001cbb  48 39 c8                      cmp        rax,rcx ; cmp(rax:64, rcx:64)
0x0000000140001cbe  0f 8f ab 00 00 00             jg         0000000140001D6Fh ; jcc.gt(@0x140001d6f)
0x0000000140001cc4  48 3d 00 00 00 80             cmp        rax,0FFFFFFFF80000000h ; cmp(rax:64, -2147483648#64)
0x0000000140001cca  0f 8c 9f 00 00 00             jl         0000000140001D6Fh ; jcc.lt(@0x140001d6f)
0x0000000140001cd0  4c 89 f9                      mov        rcx,r15 ; mov(rcx:64, r15:64)
0x0000000140001cd3  4d 89 e5                      mov        r13,r12 ; mov(r13:64, r12:64)
0x0000000140001cd6  e8 b5 fb ff ff                call       0000000140001890h ; call(@0x140001890)
0x0000000140001cdb  41 b8 04 00 00 00             mov        r8d,4 ; mov(r8d:32, 4#32)
0x0000000140001ce1  4c 89 e2                      mov        rdx,r12 ; mov(rdx:64, r12:64)
0x0000000140001ce4  4c 89 f9                      mov        rcx,r15 ; mov(rcx:64, r15:64)
0x0000000140001ce7  e8 2c 0d 00 00                call       0000000140002A18h ; call(@0x140002a18)
0x0000000140001cec  e9 46 fe ff ff                jmp        0000000140001B37h ; jmp(@0x140001b37)
0x0000000140001cf1  0f 1f 80 00 00 00 00          nop        [rax] ; nop
0x0000000140001cf8  41 0f b6 07                   movzx      eax,byte ptr [r15] ; mov(eax:32, ds:[r15]:8)
0x0000000140001cfc  84 c0                         test       al,al ; test(al:8, al:8)
0x0000000140001cfe  79 06                         jns        short 0000000140001D06h ; jcc.ns(@0x140001d06)
0x0000000140001d00  48 0d 00 ff ff ff             or         rax,0FFFFFFFFFFFFFF00h ; or(rax:64, -256#64)
0x0000000140001d06  4c 29 c0                      sub        rax,r8 ; sub(rax:64, r8:64)
0x0000000140001d09  4c 01 c8                      add        rax,r9 ; add(rax:64, r9:64)
0x0000000140001d0c  81 e1 c0 00 00 00             and        ecx,0C0h ; and(ecx:32, 192#32)
0x0000000140001d12  48 89 45 f8                   mov        [rbp-8],rax ; mov(ss:[rbp-8]:64, rax:64)
0x0000000140001d16  75 0e                         jne        short 0000000140001D26h ; jcc.ne(@0x140001d26)
0x0000000140001d18  48 3d ff 00 00 00             cmp        rax,0FFh ; cmp(rax:64, 255#64)
0x0000000140001d1e  7f 4f                         jg         short 0000000140001D6Fh ; jcc.gt(@0x140001d6f)
0x0000000140001d20  48 83 f8 80                   cmp        rax,0FFFFFFFFFFFFFF80h ; cmp(rax:64, -128#64)
0x0000000140001d24  7c 49                         jl         short 0000000140001D6Fh ; jcc.lt(@0x140001d6f)
0x0000000140001d26  4c 89 f9                      mov        rcx,r15 ; mov(rcx:64, r15:64)
0x0000000140001d29  4d 89 e5                      mov        r13,r12 ; mov(r13:64, r12:64)
0x0000000140001d2c  e8 5f fb ff ff                call       0000000140001890h ; call(@0x140001890)
0x0000000140001d31  41 b8 01 00 00 00             mov        r8d,1 ; mov(r8d:32, 1#32)
0x0000000140001d37  4c 89 e2                      mov        rdx,r12 ; mov(rdx:64, r12:64)
0x0000000140001d3a  4c 89 f9                      mov        rcx,r15 ; mov(rcx:64, r15:64)
0x0000000140001d3d  e8 d6 0c 00 00                call       0000000140002A18h ; call(@0x140002a18)
0x0000000140001d42  e9 f0 fd ff ff                jmp        0000000140001B37h ; jmp(@0x140001b37)
0x0000000140001d47  8b 4b 08                      mov        ecx,[rbx+8] ; mov(ecx:32, ds:[rbx+8]:32)
0x0000000140001d4a  85 c9                         test       ecx,ecx ; test(ecx:32, ecx:32)
0x0000000140001d4c  0f 85 56 fd ff ff             jne        0000000140001AA8h ; jcc.ne(@0x140001aa8)
0x0000000140001d52  48 83 c3 0c                   add        rbx,0Ch ; add(rbx:64, 12#64)
0x0000000140001d56  e9 38 fd ff ff                jmp        0000000140001A93h ; jmp(@0x140001a93)
0x0000000140001d5b  48 8d 0d 76 25 00 00          lea        rcx,[1400042D8h] ; lea(rcx:64, ds:[5368726232]:0)
0x0000000140001d62  48 c7 45 f8 00 00 00 00       mov        qword ptr [rbp-8],0 ; mov(ss:[rbp-8]:64, 0#64)
0x0000000140001d6a  e8 c1 fa ff ff                call       0000000140001830h ; call(@0x140001830)
0x0000000140001d6f  48 89 44 24 20                mov        [rsp+20h],rax ; mov(ss:[rsp+32]:64, rax:64)
0x0000000140001d74  4d 89 f8                      mov        r8,r15 ; mov(r8:64, r15:64)
0x0000000140001d77  48 8d 0d 8a 25 00 00          lea        rcx,[140004308h] ; lea(rcx:64, ds:[5368726280]:0)
0x0000000140001d7e  e8 ad fa ff ff                call       0000000140001830h ; call(@0x140001830)
0x0000000140001d83  48 8d 0d 16 25 00 00          lea        rcx,[1400042A0h] ; lea(rcx:64, ds:[5368726176]:0)
0x0000000140001d8a  e8 a1 fa ff ff                call       0000000140001830h ; call(@0x140001830)
0x0000000140001d8f  90                            nop        ; nop

;; ============================================================
;; function __mingw_raise_matherr [0x0000000140001d90..0x0000000140001dd0) (64 bytes)
;;   confidence: observed 1.000
;;   sources:   symbol
;; ============================================================
0x0000000140001d90  48 83 ec 58                   sub        rsp,58h ; sub(rsp:64, 88#64)
0x0000000140001d94  48 8b 05 75 63 00 00          mov        rax,[140008110h] ; mov(rax:64, ds:[5368742160]:64)
0x0000000140001d9b  48 85 c0                      test       rax,rax ; test(rax:64, rax:64)
0x0000000140001d9e  74 29                         je         short 0000000140001DC9h ; jcc.eq(@0x140001dc9)
0x0000000140001da0  f2 0f 10 84 24 80 00 00 .     movsd      xmm0,[rsp+80h] ; opaque(movsd)
0x0000000140001da9  66 0f 14 d3                   unpcklpd   xmm2,xmm3 ; opaque(unpcklpd)
0x0000000140001dad  89 4c 24 20                   mov        [rsp+20h],ecx ; mov(ss:[rsp+32]:32, ecx:32)
0x0000000140001db1  48 8d 4c 24 20                lea        rcx,[rsp+20h] ; lea(rcx:64, ss:[rsp+32]:0)
0x0000000140001db6  48 89 54 24 28                mov        [rsp+28h],rdx ; mov(ss:[rsp+40]:64, rdx:64)
0x0000000140001dbb  0f 29 54 24 30                movaps     [rsp+30h],xmm2 ; opaque(movaps)
0x0000000140001dc0  f2 0f 11 44 24 40             movsd      [rsp+40h],xmm0 ; opaque(movsd)
0x0000000140001dc6  ff d0                         call       rax ; call(rax:64)
0x0000000140001dc8  90                            nop        ; nop
0x0000000140001dc9  48 83 c4 58                   add        rsp,58h ; add(rsp:64, 88#64)
0x0000000140001dcd  c3                            ret        ; ret
0x0000000140001dce  66 90                         xchg       ax,ax ; nop

;; ============================================================
;; function __mingw_setusermatherr [0x0000000140001dd0..0x0000000140001de0) (16 bytes)
;;   confidence: observed 1.000
;;   sources:   symbol, call
;; ============================================================
0x0000000140001dd0  48 89 0d 39 63 00 00          mov        [140008110h],rcx ; mov(ds:[5368742160]:64, rcx:64)
0x0000000140001dd7  e9 44 0c 00 00                jmp        0000000140002A20h ; jmp(@0x140002a20)
0x0000000140001ddc  90                            nop        ; nop
0x0000000140001ddd  90                            nop        ; nop
0x0000000140001dde  90                            nop        ; nop
0x0000000140001ddf  90                            nop        ; nop

;; ============================================================
;; function __mingw_SEH_error_handler [0x0000000140001de0..0x0000000140001f80) (416 bytes)
;;   confidence: observed 1.000
;;   sources:   symbol
;; ============================================================
0x0000000140001de0  48 83 ec 28                   sub        rsp,28h ; sub(rsp:64, 40#64)
0x0000000140001de4  f6 41 04 02                   test       byte ptr [rcx+4],2 ; test(ds:[rcx+4]:8, 2#8)
0x0000000140001de8  0f 85 22 01 00 00             jne        0000000140001F10h ; jcc.ne(@0x140001f10)
0x0000000140001dee  48 b8 ff ff ff 20 01 00 .     mov        rax,120FFFFFFh ; mov(rax:64, 4848615423#64)
0x0000000140001df8  48 23 01                      and        rax,[rcx] ; and(rax:64, ds:[rcx]:64)
0x0000000140001dfb  48 3d 43 43 47 20             cmp        rax,20474343h ; cmp(rax:64, 541541187#64)
0x0000000140001e01  74 7d                         je         short 0000000140001E80h ; jcc.eq(@0x140001e80)
0x0000000140001e03  8b 01                         mov        eax,[rcx] ; mov(eax:32, ds:[rcx]:32)
0x0000000140001e05  3d 96 00 00 c0                cmp        eax,0C0000096h ; cmp(eax:32, -1073741674#32)
0x0000000140001e0a  0f 87 00 01 00 00             ja         0000000140001F10h ; jcc.a(@0x140001f10)
0x0000000140001e10  3d 8b 00 00 c0                cmp        eax,0C000008Bh ; cmp(eax:32, -1073741685#32)
0x0000000140001e15  76 21                         jbe        short 0000000140001E38h ; jcc.be(@0x140001e38)
0x0000000140001e17  05 73 ff ff 3f                add        eax,3FFFFF73h ; add(eax:32, 1073741683#32)
0x0000000140001e1c  83 f8 09                      cmp        eax,9 ; cmp(eax:32, 9#32)
0x0000000140001e1f  77 5f                         ja         short 0000000140001E80h ; jcc.a(@0x140001e80)
0x0000000140001e21  48 8d 15 38 25 00 00          lea        rdx,[140004360h] ; lea(rdx:64, ds:[5368726368]:0)
0x0000000140001e28  48 63 04 82                   movsxd     rax,[rdx+rax*4] ; mov(rax:64, ds:[rdx+rax*4]:32)
0x0000000140001e2c  48 01 d0                      add        rax,rdx ; add(rax:64, rdx:64)
0x0000000140001e2f  ff e0                         jmp        rax ; jmp(rax:64)
0x0000000140001e31  0f 1f 80 00 00 00 00          nop        [rax] ; nop
0x0000000140001e38  3d 05 00 00 c0                cmp        eax,0C0000005h ; cmp(eax:32, -1073741819#32)
0x0000000140001e3d  74 79                         je         short 0000000140001EB8h ; jcc.eq(@0x140001eb8)
0x0000000140001e3f  0f 86 db 00 00 00             jbe        0000000140001F20h ; jcc.be(@0x140001f20)
0x0000000140001e45  3d 08 00 00 c0                cmp        eax,0C0000008h ; cmp(eax:32, -1073741816#32)
0x0000000140001e4a  74 34                         je         short 0000000140001E80h ; jcc.eq(@0x140001e80)
0x0000000140001e4c  3d 1d 00 00 c0                cmp        eax,0C000001Dh ; cmp(eax:32, -1073741795#32)
0x0000000140001e51  0f 85 b9 00 00 00             jne        0000000140001F10h ; jcc.ne(@0x140001f10)
0x0000000140001e57  31 d2                         xor        edx,edx ; xor(edx:32, edx:32)
0x0000000140001e59  b9 04 00 00 00                mov        ecx,4 ; mov(ecx:32, 4#32)
0x0000000140001e5e  e8 a5 0b 00 00                call       0000000140002A08h ; call(@0x140002a08)
0x0000000140001e63  48 83 f8 01                   cmp        rax,1 ; cmp(rax:64, 1#64)
0x0000000140001e67  0f 84 db 00 00 00             je         0000000140001F48h ; jcc.eq(@0x140001f48)
0x0000000140001e6d  48 85 c0                      test       rax,rax ; test(rax:64, rax:64)
0x0000000140001e70  0f 84 9a 00 00 00             je         0000000140001F10h ; jcc.eq(@0x140001f10)
0x0000000140001e76  b9 04 00 00 00                mov        ecx,4 ; mov(ecx:32, 4#32)
0x0000000140001e7b  ff d0                         call       rax ; call(rax:64)
0x0000000140001e7d  0f 1f 00                      nop        [rax] ; nop
0x0000000140001e80  31 c0                         xor        eax,eax ; xor(eax:32, eax:32)
0x0000000140001e82  48 83 c4 28                   add        rsp,28h ; add(rsp:64, 40#64)
0x0000000140001e86  c3                            ret        ; ret
0x0000000140001e87  66 0f 1f 84 00 00 00 00 .     nop        [rax+rax] ; nop
0x0000000140001e90  31 d2                         xor        edx,edx ; xor(edx:32, edx:32)
0x0000000140001e92  b9 08 00 00 00                mov        ecx,8 ; mov(ecx:32, 8#32)
0x0000000140001e97  e8 6c 0b 00 00                call       0000000140002A08h ; call(@0x140002a08)
0x0000000140001e9c  48 83 f8 01                   cmp        rax,1 ; cmp(rax:64, 1#64)
0x0000000140001ea0  0f 84 ba 00 00 00             je         0000000140001F60h ; jcc.eq(@0x140001f60)
0x0000000140001ea6  48 85 c0                      test       rax,rax ; test(rax:64, rax:64)
0x0000000140001ea9  74 65                         je         short 0000000140001F10h ; jcc.eq(@0x140001f10)
0x0000000140001eab  b9 08 00 00 00                mov        ecx,8 ; mov(ecx:32, 8#32)
0x0000000140001eb0  ff d0                         call       rax ; call(rax:64)
0x0000000140001eb2  eb cc                         jmp        short 0000000140001E80h ; jmp(@0x140001e80)
0x0000000140001eb4  0f 1f 40 00                   nop        [rax] ; nop
0x0000000140001eb8  31 d2                         xor        edx,edx ; xor(edx:32, edx:32)
0x0000000140001eba  b9 0b 00 00 00                mov        ecx,0Bh ; mov(ecx:32, 11#32)
0x0000000140001ebf  e8 44 0b 00 00                call       0000000140002A08h ; call(@0x140002a08)
0x0000000140001ec4  48 83 f8 01                   cmp        rax,1 ; cmp(rax:64, 1#64)
0x0000000140001ec8  74 66                         je         short 0000000140001F30h ; jcc.eq(@0x140001f30)
0x0000000140001eca  48 85 c0                      test       rax,rax ; test(rax:64, rax:64)
0x0000000140001ecd  74 41                         je         short 0000000140001F10h ; jcc.eq(@0x140001f10)
0x0000000140001ecf  b9 0b 00 00 00                mov        ecx,0Bh ; mov(ecx:32, 11#32)
0x0000000140001ed4  ff d0                         call       rax ; call(rax:64)
0x0000000140001ed6  eb a8                         jmp        short 0000000140001E80h ; jmp(@0x140001e80)
0x0000000140001ed8  0f 1f 84 00 00 00 00 00       nop        [rax+rax] ; nop
0x0000000140001ee0  31 d2                         xor        edx,edx ; xor(edx:32, edx:32)
0x0000000140001ee2  b9 08 00 00 00                mov        ecx,8 ; mov(ecx:32, 8#32)
0x0000000140001ee7  e8 1c 0b 00 00                call       0000000140002A08h ; call(@0x140002a08)
0x0000000140001eec  48 83 f8 01                   cmp        rax,1 ; cmp(rax:64, 1#64)
0x0000000140001ef0  75 b4                         jne        short 0000000140001EA6h ; jcc.ne(@0x140001ea6)
0x0000000140001ef2  ba 01 00 00 00                mov        edx,1 ; mov(edx:32, 1#32)
0x0000000140001ef7  b9 08 00 00 00                mov        ecx,8 ; mov(ecx:32, 8#32)
0x0000000140001efc  e8 07 0b 00 00                call       0000000140002A08h ; call(@0x140002a08)
0x0000000140001f01  e9 7a ff ff ff                jmp        0000000140001E80h ; jmp(@0x140001e80)
0x0000000140001f06  66 2e 0f 1f 84 00 00 00 .     nop        [rax+rax] ; nop
0x0000000140001f10  b8 01 00 00 00                mov        eax,1 ; mov(eax:32, 1#32)
0x0000000140001f15  e9 68 ff ff ff                jmp        0000000140001E82h ; jmp(@0x140001e82)
0x0000000140001f1a  66 0f 1f 44 00 00             nop        [rax+rax] ; nop
0x0000000140001f20  3d 02 00 00 80                cmp        eax,80000002h ; cmp(eax:32, -2147483646#32)
0x0000000140001f25  0f 95 c0                      setne      al ; opaque(setne)
0x0000000140001f28  0f b6 c0                      movzx      eax,al ; mov(eax:32, al:8)
0x0000000140001f2b  e9 52 ff ff ff                jmp        0000000140001E82h ; jmp(@0x140001e82)
0x0000000140001f30  ba 01 00 00 00                mov        edx,1 ; mov(edx:32, 1#32)
0x0000000140001f35  b9 0b 00 00 00                mov        ecx,0Bh ; mov(ecx:32, 11#32)
0x0000000140001f3a  e8 c9 0a 00 00                call       0000000140002A08h ; call(@0x140002a08)
0x0000000140001f3f  e9 3c ff ff ff                jmp        0000000140001E80h ; jmp(@0x140001e80)
0x0000000140001f44  0f 1f 40 00                   nop        [rax] ; nop
0x0000000140001f48  ba 01 00 00 00                mov        edx,1 ; mov(edx:32, 1#32)
0x0000000140001f4d  b9 04 00 00 00                mov        ecx,4 ; mov(ecx:32, 4#32)
0x0000000140001f52  e8 b1 0a 00 00                call       0000000140002A08h ; call(@0x140002a08)
0x0000000140001f57  e9 24 ff ff ff                jmp        0000000140001E80h ; jmp(@0x140001e80)
0x0000000140001f5c  0f 1f 40 00                   nop        [rax] ; nop
0x0000000140001f60  ba 01 00 00 00                mov        edx,1 ; mov(edx:32, 1#32)
0x0000000140001f65  b9 08 00 00 00                mov        ecx,8 ; mov(ecx:32, 8#32)
0x0000000140001f6a  e8 99 0a 00 00                call       0000000140002A08h ; call(@0x140002a08)
0x0000000140001f6f  e8 6c 04 00 00                call       00000001400023E0h ; call(@0x1400023e0)
0x0000000140001f74  e9 07 ff ff ff                jmp        0000000140001E80h ; jmp(@0x140001e80)
0x0000000140001f79  0f 1f 80 00 00 00 00          nop        [rax] ; nop

;; ============================================================
;; function _gnu_exception_handler [0x0000000140001f80..0x0000000140002140) (448 bytes)
;;   confidence: observed 1.000
;;   sources:   symbol
;; ============================================================
0x0000000140001f80  53                            push       rbx ; push(rbx:64)
0x0000000140001f81  48 83 ec 20                   sub        rsp,20h ; sub(rsp:64, 32#64)
0x0000000140001f85  48 8b 11                      mov        rdx,[rcx] ; mov(rdx:64, ds:[rcx]:64)
0x0000000140001f88  8b 02                         mov        eax,[rdx] ; mov(eax:32, ds:[rdx]:32)
0x0000000140001f8a  48 89 cb                      mov        rbx,rcx ; mov(rbx:64, rcx:64)
0x0000000140001f8d  89 c1                         mov        ecx,eax ; mov(ecx:32, eax:32)
0x0000000140001f8f  81 e1 ff ff ff 20             and        ecx,20FFFFFFh ; and(ecx:32, 553648127#32)
0x0000000140001f95  81 f9 43 43 47 20             cmp        ecx,20474343h ; cmp(ecx:32, 541541187#32)
0x0000000140001f9b  0f 84 bf 00 00 00             je         0000000140002060h ; jcc.eq(@0x140002060)
0x0000000140001fa1  3d 96 00 00 c0                cmp        eax,0C0000096h ; cmp(eax:32, -1073741674#32)
0x0000000140001fa6  77 47                         ja         short 0000000140001FEFh ; jcc.a(@0x140001fef)
0x0000000140001fa8  3d 8b 00 00 c0                cmp        eax,0C000008Bh ; cmp(eax:32, -1073741685#32)
0x0000000140001fad  76 61                         jbe        short 0000000140002010h ; jcc.be(@0x140002010)
0x0000000140001faf  05 73 ff ff 3f                add        eax,3FFFFF73h ; add(eax:32, 1073741683#32)
0x0000000140001fb4  83 f8 09                      cmp        eax,9 ; cmp(eax:32, 9#32)
0x0000000140001fb7  0f 87 94 00 00 00             ja         0000000140002051h ; jcc.a(@0x140002051)
0x0000000140001fbd  48 8d 15 c4 23 00 00          lea        rdx,[140004388h] ; lea(rdx:64, ds:[5368726408]:0)
0x0000000140001fc4  48 63 04 82                   movsxd     rax,[rdx+rax*4] ; mov(rax:64, ds:[rdx+rax*4]:32)
0x0000000140001fc8  48 01 d0                      add        rax,rdx ; add(rax:64, rdx:64)
0x0000000140001fcb  ff e0                         jmp        rax ; jmp(rax:64)
0x0000000140001fcd  0f 1f 00                      nop        [rax] ; nop
0x0000000140001fd0  31 d2                         xor        edx,edx ; xor(edx:32, edx:32)
0x0000000140001fd2  b9 08 00 00 00                mov        ecx,8 ; mov(ecx:32, 8#32)
0x0000000140001fd7  e8 2c 0a 00 00                call       0000000140002A08h ; call(@0x140002a08)
0x0000000140001fdc  48 83 f8 01                   cmp        rax,1 ; cmp(rax:64, 1#64)
0x0000000140001fe0  0f 84 3e 01 00 00             je         0000000140002124h ; jcc.eq(@0x140002124)
0x0000000140001fe6  48 85 c0                      test       rax,rax ; test(rax:64, rax:64)
0x0000000140001fe9  0f 85 01 01 00 00             jne        00000001400020F0h ; jcc.ne(@0x1400020f0)
0x0000000140001fef  48 8b 05 3a 61 00 00          mov        rax,[140008130h] ; mov(rax:64, ds:[5368742192]:64)
0x0000000140001ff6  48 85 c0                      test       rax,rax ; test(rax:64, rax:64)
0x0000000140001ff9  74 75                         je         short 0000000140002070h ; jcc.eq(@0x140002070)
0x0000000140001ffb  48 89 d9                      mov        rcx,rbx ; mov(rcx:64, rbx:64)
0x0000000140001ffe  48 83 c4 20                   add        rsp,20h ; add(rsp:64, 32#64)
0x0000000140002002  5b                            pop        rbx ; pop(rbx:64)
0x0000000140002003  48 ff e0                      jmp        rax ; jmp(rax:64)
0x0000000140002006  66 2e 0f 1f 84 00 00 00 .     nop        [rax+rax] ; nop
0x0000000140002010  3d 05 00 00 c0                cmp        eax,0C0000005h ; cmp(eax:32, -1073741819#32)
0x0000000140002015  0f 84 a5 00 00 00             je         00000001400020C0h ; jcc.eq(@0x1400020c0)
0x000000014000201b  0f 86 8f 00 00 00             jbe        00000001400020B0h ; jcc.be(@0x1400020b0)
0x0000000140002021  3d 08 00 00 c0                cmp        eax,0C0000008h ; cmp(eax:32, -1073741816#32)
0x0000000140002026  74 29                         je         short 0000000140002051h ; jcc.eq(@0x140002051)
0x0000000140002028  3d 1d 00 00 c0                cmp        eax,0C000001Dh ; cmp(eax:32, -1073741795#32)
0x000000014000202d  75 c0                         jne        short 0000000140001FEFh ; jcc.ne(@0x140001fef)
0x000000014000202f  31 d2                         xor        edx,edx ; xor(edx:32, edx:32)
0x0000000140002031  b9 04 00 00 00                mov        ecx,4 ; mov(ecx:32, 4#32)
0x0000000140002036  e8 cd 09 00 00                call       0000000140002A08h ; call(@0x140002a08)
0x000000014000203b  48 83 f8 01                   cmp        rax,1 ; cmp(rax:64, 1#64)
0x000000014000203f  0f 84 cb 00 00 00             je         0000000140002110h ; jcc.eq(@0x140002110)
0x0000000140002045  48 85 c0                      test       rax,rax ; test(rax:64, rax:64)
0x0000000140002048  74 a5                         je         short 0000000140001FEFh ; jcc.eq(@0x140001fef)
0x000000014000204a  b9 04 00 00 00                mov        ecx,4 ; mov(ecx:32, 4#32)
0x000000014000204f  ff d0                         call       rax ; call(rax:64)
0x0000000140002051  b8 ff ff ff ff                mov        eax,0FFFFFFFFh ; mov(eax:32, -1#32)
0x0000000140002056  48 83 c4 20                   add        rsp,20h ; add(rsp:64, 32#64)
0x000000014000205a  5b                            pop        rbx ; pop(rbx:64)
0x000000014000205b  c3                            ret        ; ret
0x000000014000205c  0f 1f 40 00                   nop        [rax] ; nop
0x0000000140002060  f6 42 04 01                   test       byte ptr [rdx+4],1 ; test(ds:[rdx+4]:8, 1#8)
0x0000000140002064  0f 85 37 ff ff ff             jne        0000000140001FA1h ; jcc.ne(@0x140001fa1)
0x000000014000206a  eb e5                         jmp        short 0000000140002051h ; jmp(@0x140002051)
0x000000014000206c  0f 1f 40 00                   nop        [rax] ; nop
0x0000000140002070  31 c0                         xor        eax,eax ; xor(eax:32, eax:32)
0x0000000140002072  48 83 c4 20                   add        rsp,20h ; add(rsp:64, 32#64)
0x0000000140002076  5b                            pop        rbx ; pop(rbx:64)
0x0000000140002077  c3                            ret        ; ret
0x0000000140002078  0f 1f 84 00 00 00 00 00       nop        [rax+rax] ; nop
0x0000000140002080  31 d2                         xor        edx,edx ; xor(edx:32, edx:32)
0x0000000140002082  b9 08 00 00 00                mov        ecx,8 ; mov(ecx:32, 8#32)
0x0000000140002087  e8 7c 09 00 00                call       0000000140002A08h ; call(@0x140002a08)
0x000000014000208c  48 83 f8 01                   cmp        rax,1 ; cmp(rax:64, 1#64)
0x0000000140002090  0f 85 50 ff ff ff             jne        0000000140001FE6h ; jcc.ne(@0x140001fe6)
0x0000000140002096  ba 01 00 00 00                mov        edx,1 ; mov(edx:32, 1#32)
0x000000014000209b  b9 08 00 00 00                mov        ecx,8 ; mov(ecx:32, 8#32)
0x00000001400020a0  e8 63 09 00 00                call       0000000140002A08h ; call(@0x140002a08)
0x00000001400020a5  eb aa                         jmp        short 0000000140002051h ; jmp(@0x140002051)
0x00000001400020a7  66 0f 1f 84 00 00 00 00 .     nop        [rax+rax] ; nop
0x00000001400020b0  3d 02 00 00 80                cmp        eax,80000002h ; cmp(eax:32, -2147483646#32)
0x00000001400020b5  0f 85 34 ff ff ff             jne        0000000140001FEFh ; jcc.ne(@0x140001fef)
0x00000001400020bb  eb 94                         jmp        short 0000000140002051h ; jmp(@0x140002051)
0x00000001400020bd  0f 1f 00                      nop        [rax] ; nop
0x00000001400020c0  31 d2                         xor        edx,edx ; xor(edx:32, edx:32)
0x00000001400020c2  b9 0b 00 00 00                mov        ecx,0Bh ; mov(ecx:32, 11#32)
0x00000001400020c7  e8 3c 09 00 00                call       0000000140002A08h ; call(@0x140002a08)
0x00000001400020cc  48 83 f8 01                   cmp        rax,1 ; cmp(rax:64, 1#64)
0x00000001400020d0  74 2a                         je         short 00000001400020FCh ; jcc.eq(@0x1400020fc)
0x00000001400020d2  48 85 c0                      test       rax,rax ; test(rax:64, rax:64)
0x00000001400020d5  0f 84 14 ff ff ff             je         0000000140001FEFh ; jcc.eq(@0x140001fef)
0x00000001400020db  b9 0b 00 00 00                mov        ecx,0Bh ; mov(ecx:32, 11#32)
0x00000001400020e0  ff d0                         call       rax ; call(rax:64)
0x00000001400020e2  e9 6a ff ff ff                jmp        0000000140002051h ; jmp(@0x140002051)
0x00000001400020e7  66 0f 1f 84 00 00 00 00 .     nop        [rax+rax] ; nop
0x00000001400020f0  b9 08 00 00 00                mov        ecx,8 ; mov(ecx:32, 8#32)
0x00000001400020f5  ff d0                         call       rax ; call(rax:64)
0x00000001400020f7  e9 55 ff ff ff                jmp        0000000140002051h ; jmp(@0x140002051)
0x00000001400020fc  ba 01 00 00 00                mov        edx,1 ; mov(edx:32, 1#32)
0x0000000140002101  b9 0b 00 00 00                mov        ecx,0Bh ; mov(ecx:32, 11#32)
0x0000000140002106  e8 fd 08 00 00                call       0000000140002A08h ; call(@0x140002a08)
0x000000014000210b  e9 41 ff ff ff                jmp        0000000140002051h ; jmp(@0x140002051)
0x0000000140002110  ba 01 00 00 00                mov        edx,1 ; mov(edx:32, 1#32)
0x0000000140002115  b9 04 00 00 00                mov        ecx,4 ; mov(ecx:32, 4#32)
0x000000014000211a  e8 e9 08 00 00                call       0000000140002A08h ; call(@0x140002a08)
0x000000014000211f  e9 2d ff ff ff                jmp        0000000140002051h ; jmp(@0x140002051)
0x0000000140002124  ba 01 00 00 00                mov        edx,1 ; mov(edx:32, 1#32)
0x0000000140002129  b9 08 00 00 00                mov        ecx,8 ; mov(ecx:32, 8#32)
0x000000014000212e  e8 d5 08 00 00                call       0000000140002A08h ; call(@0x140002a08)
0x0000000140002133  e8 a8 02 00 00                call       00000001400023E0h ; call(@0x1400023e0)
0x0000000140002138  e9 14 ff ff ff                jmp        0000000140002051h ; jmp(@0x140002051)
0x000000014000213d  90                            nop        ; nop
0x000000014000213e  90                            nop        ; nop
0x000000014000213f  90                            nop        ; nop

;; ============================================================
;; function __mingwthr_run_key_dtors.part.0 [0x0000000140002140..0x00000001400021b0) (112 bytes)
;;   confidence: observed 1.000
;;   sources:   symbol, call
;; ============================================================
0x0000000140002140  55                            push       rbp ; push(rbp:64)
0x0000000140002141  57                            push       rdi ; push(rdi:64)
0x0000000140002142  56                            push       rsi ; push(rsi:64)
0x0000000140002143  53                            push       rbx ; push(rbx:64)
0x0000000140002144  48 83 ec 28                   sub        rsp,28h ; sub(rsp:64, 40#64)
0x0000000140002148  48 8d 0d 11 60 00 00          lea        rcx,[140008160h] ; lea(rcx:64, ds:[5368742240]:0)
0x000000014000214f  ff 15 3b 71 00 00             call       qword ptr [140009290h] ; call(ds:[5368746640]:64)
0x0000000140002155  48 8b 1d e4 5f 00 00          mov        rbx,[140008140h] ; mov(rbx:64, ds:[5368742208]:64)
0x000000014000215c  48 85 db                      test       rbx,rbx ; test(rbx:64, rbx:64)
0x000000014000215f  74 33                         je         short 0000000140002194h ; jcc.eq(@0x140002194)
0x0000000140002161  48 8b 2d 80 71 00 00          mov        rbp,[1400092E8h] ; mov(rbp:64, ds:[5368746728]:64)
0x0000000140002168  48 8b 3d 31 71 00 00          mov        rdi,[1400092A0h] ; mov(rdi:64, ds:[5368746656]:64)
0x000000014000216f  90                            nop        ; nop
0x0000000140002170  8b 0b                         mov        ecx,[rbx] ; mov(ecx:32, ds:[rbx]:32)
0x0000000140002172  ff d5                         call       rbp ; call(rbp:64)
0x0000000140002174  48 89 c6                      mov        rsi,rax ; mov(rsi:64, rax:64)
0x0000000140002177  ff d7                         call       rdi ; call(rdi:64)
0x0000000140002179  48 85 f6                      test       rsi,rsi ; test(rsi:64, rsi:64)
0x000000014000217c  74 0d                         je         short 000000014000218Bh ; jcc.eq(@0x14000218b)
0x000000014000217e  85 c0                         test       eax,eax ; test(eax:32, eax:32)
0x0000000140002180  75 09                         jne        short 000000014000218Bh ; jcc.ne(@0x14000218b)
0x0000000140002182  48 8b 43 08                   mov        rax,[rbx+8] ; mov(rax:64, ds:[rbx+8]:64)
0x0000000140002186  48 89 f1                      mov        rcx,rsi ; mov(rcx:64, rsi:64)
0x0000000140002189  ff d0                         call       rax ; call(rax:64)
0x000000014000218b  48 8b 5b 10                   mov        rbx,[rbx+10h] ; mov(rbx:64, ds:[rbx+16]:64)
0x000000014000218f  48 85 db                      test       rbx,rbx ; test(rbx:64, rbx:64)
0x0000000140002192  75 dc                         jne        short 0000000140002170h ; jcc.ne(@0x140002170)
0x0000000140002194  48 8d 0d c5 5f 00 00          lea        rcx,[140008160h] ; lea(rcx:64, ds:[5368742240]:0)
0x000000014000219b  48 83 c4 28                   add        rsp,28h ; add(rsp:64, 40#64)
0x000000014000219f  5b                            pop        rbx ; pop(rbx:64)
0x00000001400021a0  5e                            pop        rsi ; pop(rsi:64)
0x00000001400021a1  5f                            pop        rdi ; pop(rdi:64)
0x00000001400021a2  5d                            pop        rbp ; pop(rbp:64)
0x00000001400021a3  48 ff 25 1e 71 00 00          jmp        qword ptr [1400092C8h] ; jmp(ds:[5368746696]:64)
0x00000001400021aa  66 0f 1f 44 00 00             nop        [rax+rax] ; nop

;; ============================================================
;; function ___w64_mingwthr_add_key_dtor [0x00000001400021b0..0x0000000140002240) (144 bytes)
;;   confidence: observed 1.000
;;   sources:   symbol
;; ============================================================
0x00000001400021b0  48 83 ec 38                   sub        rsp,38h ; sub(rsp:64, 56#64)
0x00000001400021b4  8b 05 8e 5f 00 00             mov        eax,[140008148h] ; mov(eax:32, ds:[5368742216]:32)
0x00000001400021ba  41 89 c9                      mov        r9d,ecx ; mov(r9d:32, ecx:32)
0x00000001400021bd  85 c0                         test       eax,eax ; test(eax:32, eax:32)
0x00000001400021bf  75 0f                         jne        short 00000001400021D0h ; jcc.ne(@0x1400021d0)
0x00000001400021c1  31 c0                         xor        eax,eax ; xor(eax:32, eax:32)
0x00000001400021c3  48 83 c4 38                   add        rsp,38h ; add(rsp:64, 56#64)
0x00000001400021c7  c3                            ret        ; ret
0x00000001400021c8  0f 1f 84 00 00 00 00 00       nop        [rax+rax] ; nop
0x00000001400021d0  48 89 54 24 48                mov        [rsp+48h],rdx ; mov(ss:[rsp+72]:64, rdx:64)
0x00000001400021d5  b9 01 00 00 00                mov        ecx,1 ; mov(ecx:32, 1#32)
0x00000001400021da  ba 18 00 00 00                mov        edx,18h ; mov(edx:32, 24#32)
0x00000001400021df  44 89 4c 24 40                mov        [rsp+40h],r9d ; mov(ss:[rsp+64]:32, r9d:32)
0x00000001400021e4  e8 4f 08 00 00                call       0000000140002A38h ; call(@0x140002a38)
0x00000001400021e9  48 85 c0                      test       rax,rax ; test(rax:64, rax:64)
0x00000001400021ec  74 49                         je         short 0000000140002237h ; jcc.eq(@0x140002237)
0x00000001400021ee  44 8b 4c 24 40                mov        r9d,[rsp+40h] ; mov(r9d:32, ss:[rsp+64]:32)
0x00000001400021f3  4c 8b 44 24 48                mov        r8,[rsp+48h] ; mov(r8:64, ss:[rsp+72]:64)
0x00000001400021f8  48 89 44 24 28                mov        [rsp+28h],rax ; mov(ss:[rsp+40]:64, rax:64)
0x00000001400021fd  48 8d 0d 5c 5f 00 00          lea        rcx,[140008160h] ; lea(rcx:64, ds:[5368742240]:0)
0x0000000140002204  44 89 08                      mov        [rax],r9d ; mov(ds:[rax]:32, r9d:32)
0x0000000140002207  4c 89 40 08                   mov        [rax+8],r8 ; mov(ds:[rax+8]:64, r8:64)
0x000000014000220b  ff 15 7f 70 00 00             call       qword ptr [140009290h] ; call(ds:[5368746640]:64)
0x0000000140002211  48 8b 15 28 5f 00 00          mov        rdx,[140008140h] ; mov(rdx:64, ds:[5368742208]:64)
0x0000000140002218  48 8b 44 24 28                mov        rax,[rsp+28h] ; mov(rax:64, ss:[rsp+40]:64)
0x000000014000221d  48 8d 0d 3c 5f 00 00          lea        rcx,[140008160h] ; lea(rcx:64, ds:[5368742240]:0)
0x0000000140002224  48 89 50 10                   mov        [rax+10h],rdx ; mov(ds:[rax+16]:64, rdx:64)
0x0000000140002228  48 89 05 11 5f 00 00          mov        [140008140h],rax ; mov(ds:[5368742208]:64, rax:64)
0x000000014000222f  ff 15 93 70 00 00             call       qword ptr [1400092C8h] ; call(ds:[5368746696]:64)
0x0000000140002235  eb 8a                         jmp        short 00000001400021C1h ; jmp(@0x1400021c1)
0x0000000140002237  b8 ff ff ff ff                mov        eax,0FFFFFFFFh ; mov(eax:32, -1#32)
0x000000014000223c  eb 85                         jmp        short 00000001400021C3h ; jmp(@0x1400021c3)
0x000000014000223e  66 90                         xchg       ax,ax ; nop

;; ============================================================
;; function ___w64_mingwthr_remove_key_dtor [0x0000000140002240..0x00000001400022d0) (144 bytes)
;;   confidence: observed 1.000
;;   sources:   symbol
;; ============================================================
0x0000000140002240  48 83 ec 28                   sub        rsp,28h ; sub(rsp:64, 40#64)
0x0000000140002244  8b 05 fe 5e 00 00             mov        eax,[140008148h] ; mov(eax:32, ds:[5368742216]:32)
0x000000014000224a  85 c0                         test       eax,eax ; test(eax:32, eax:32)
0x000000014000224c  75 0a                         jne        short 0000000140002258h ; jcc.ne(@0x140002258)
0x000000014000224e  31 c0                         xor        eax,eax ; xor(eax:32, eax:32)
0x0000000140002250  48 83 c4 28                   add        rsp,28h ; add(rsp:64, 40#64)
0x0000000140002254  c3                            ret        ; ret
0x0000000140002255  0f 1f 00                      nop        [rax] ; nop
0x0000000140002258  89 4c 24 30                   mov        [rsp+30h],ecx ; mov(ss:[rsp+48]:32, ecx:32)
0x000000014000225c  48 8d 0d fd 5e 00 00          lea        rcx,[140008160h] ; lea(rcx:64, ds:[5368742240]:0)
0x0000000140002263  ff 15 27 70 00 00             call       qword ptr [140009290h] ; call(ds:[5368746640]:64)
0x0000000140002269  48 8b 0d d0 5e 00 00          mov        rcx,[140008140h] ; mov(rcx:64, ds:[5368742208]:64)
0x0000000140002270  48 85 c9                      test       rcx,rcx ; test(rcx:64, rcx:64)
0x0000000140002273  74 2e                         je         short 00000001400022A3h ; jcc.eq(@0x1400022a3)
0x0000000140002275  8b 54 24 30                   mov        edx,[rsp+30h] ; mov(edx:32, ss:[rsp+48]:32)
0x0000000140002279  45 31 c0                      xor        r8d,r8d ; xor(r8d:32, r8d:32)
0x000000014000227c  eb 0d                         jmp        short 000000014000228Bh ; jmp(@0x14000228b)
0x000000014000227e  66 90                         xchg       ax,ax ; nop
0x0000000140002280  49 89 c8                      mov        r8,rcx ; mov(r8:64, rcx:64)
0x0000000140002283  48 85 c0                      test       rax,rax ; test(rax:64, rax:64)
0x0000000140002286  74 1b                         je         short 00000001400022A3h ; jcc.eq(@0x1400022a3)
0x0000000140002288  48 89 c1                      mov        rcx,rax ; mov(rcx:64, rax:64)
0x000000014000228b  8b 01                         mov        eax,[rcx] ; mov(eax:32, ds:[rcx]:32)
0x000000014000228d  39 d0                         cmp        eax,edx ; cmp(eax:32, edx:32)
0x000000014000228f  48 8b 41 10                   mov        rax,[rcx+10h] ; mov(rax:64, ds:[rcx+16]:64)
0x0000000140002293  75 eb                         jne        short 0000000140002280h ; jcc.ne(@0x140002280)
0x0000000140002295  4d 85 c0                      test       r8,r8 ; test(r8:64, r8:64)
0x0000000140002298  74 26                         je         short 00000001400022C0h ; jcc.eq(@0x1400022c0)
0x000000014000229a  49 89 40 10                   mov        [r8+10h],rax ; mov(ds:[r8+16]:64, rax:64)
0x000000014000229e  e8 9d 07 00 00                call       0000000140002A40h ; call(@0x140002a40)
0x00000001400022a3  48 8d 0d b6 5e 00 00          lea        rcx,[140008160h] ; lea(rcx:64, ds:[5368742240]:0)
0x00000001400022aa  ff 15 18 70 00 00             call       qword ptr [1400092C8h] ; call(ds:[5368746696]:64)
0x00000001400022b0  31 c0                         xor        eax,eax ; xor(eax:32, eax:32)
0x00000001400022b2  48 83 c4 28                   add        rsp,28h ; add(rsp:64, 40#64)
0x00000001400022b6  c3                            ret        ; ret
0x00000001400022b7  66 0f 1f 84 00 00 00 00 .     nop        [rax+rax] ; nop
0x00000001400022c0  48 89 05 79 5e 00 00          mov        [140008140h],rax ; mov(ds:[5368742208]:64, rax:64)
0x00000001400022c7  eb d5                         jmp        short 000000014000229Eh ; jmp(@0x14000229e)
0x00000001400022c9  0f 1f 80 00 00 00 00          nop        [rax] ; nop

;; ============================================================
;; function __mingw_TLScallback [0x00000001400022d0..0x00000001400023e0) (272 bytes)
;;   confidence: observed 1.000
;;   sources:   symbol
;; ============================================================
0x00000001400022d0  48 83 ec 38                   sub        rsp,38h ; sub(rsp:64, 56#64)
0x00000001400022d4  83 fa 02                      cmp        edx,2 ; cmp(edx:32, 2#32)
0x00000001400022d7  0f 84 bb 00 00 00             je         0000000140002398h ; jcc.eq(@0x140002398)
0x00000001400022dd  77 29                         ja         short 0000000140002308h ; jcc.a(@0x140002308)
0x00000001400022df  85 d2                         test       edx,edx ; test(edx:32, edx:32)
0x00000001400022e1  74 3d                         je         short 0000000140002320h ; jcc.eq(@0x140002320)
0x00000001400022e3  8b 05 5f 5e 00 00             mov        eax,[140008148h] ; mov(eax:32, ds:[5368742216]:32)
0x00000001400022e9  85 c0                         test       eax,eax ; test(eax:32, eax:32)
0x00000001400022eb  0f 84 cf 00 00 00             je         00000001400023C0h ; jcc.eq(@0x1400023c0)
0x00000001400022f1  c7 05 4d 5e 00 00 01 00 .     mov        dword ptr [140008148h],1 ; mov(ds:[5368742216]:32, 1#32)
0x00000001400022fb  b8 01 00 00 00                mov        eax,1 ; mov(eax:32, 1#32)
0x0000000140002300  48 83 c4 38                   add        rsp,38h ; add(rsp:64, 56#64)
0x0000000140002304  c3                            ret        ; ret
0x0000000140002305  0f 1f 00                      nop        [rax] ; nop
0x0000000140002308  83 fa 03                      cmp        edx,3 ; cmp(edx:32, 3#32)
0x000000014000230b  75 ee                         jne        short 00000001400022FBh ; jcc.ne(@0x1400022fb)
0x000000014000230d  8b 05 35 5e 00 00             mov        eax,[140008148h] ; mov(eax:32, ds:[5368742216]:32)
0x0000000140002313  85 c0                         test       eax,eax ; test(eax:32, eax:32)
0x0000000140002315  74 e4                         je         short 00000001400022FBh ; jcc.eq(@0x1400022fb)
0x0000000140002317  e8 24 fe ff ff                call       0000000140002140h ; call(@0x140002140)
0x000000014000231c  eb dd                         jmp        short 00000001400022FBh ; jmp(@0x1400022fb)
0x000000014000231e  66 90                         xchg       ax,ax ; nop
0x0000000140002320  8b 05 22 5e 00 00             mov        eax,[140008148h] ; mov(eax:32, ds:[5368742216]:32)
0x0000000140002326  85 c0                         test       eax,eax ; test(eax:32, eax:32)
0x0000000140002328  0f 85 82 00 00 00             jne        00000001400023B0h ; jcc.ne(@0x1400023b0)
0x000000014000232e  8b 05 14 5e 00 00             mov        eax,[140008148h] ; mov(eax:32, ds:[5368742216]:32)
0x0000000140002334  83 f8 01                      cmp        eax,1 ; cmp(eax:32, 1#32)
0x0000000140002337  75 c2                         jne        short 00000001400022FBh ; jcc.ne(@0x1400022fb)
0x0000000140002339  48 8b 05 00 5e 00 00          mov        rax,[140008140h] ; mov(rax:64, ds:[5368742208]:64)
0x0000000140002340  48 85 c0                      test       rax,rax ; test(rax:64, rax:64)
0x0000000140002343  74 26                         je         short 000000014000236Bh ; jcc.eq(@0x14000236b)
0x0000000140002345  66 66 2e 0f 1f 84 00 00 .     nop        [rax+rax] ; nop
0x0000000140002350  48 89 c1                      mov        rcx,rax ; mov(rcx:64, rax:64)
0x0000000140002353  48 8b 40 10                   mov        rax,[rax+10h] ; mov(rax:64, ds:[rax+16]:64)
0x0000000140002357  48 89 44 24 28                mov        [rsp+28h],rax ; mov(ss:[rsp+40]:64, rax:64)
0x000000014000235c  e8 df 06 00 00                call       0000000140002A40h ; call(@0x140002a40)
0x0000000140002361  48 8b 44 24 28                mov        rax,[rsp+28h] ; mov(rax:64, ss:[rsp+40]:64)
0x0000000140002366  48 85 c0                      test       rax,rax ; test(rax:64, rax:64)
0x0000000140002369  75 e5                         jne        short 0000000140002350h ; jcc.ne(@0x140002350)
0x000000014000236b  48 8d 0d ee 5d 00 00          lea        rcx,[140008160h] ; lea(rcx:64, ds:[5368742240]:0)
0x0000000140002372  48 c7 05 c3 5d 00 00 00 .     mov        qword ptr [140008140h],0 ; mov(ds:[5368742208]:64, 0#64)
0x000000014000237d  c7 05 c1 5d 00 00 00 00 .     mov        dword ptr [140008148h],0 ; mov(ds:[5368742216]:32, 0#32)
0x0000000140002387  ff 15 fb 6e 00 00             call       qword ptr [140009288h] ; call(ds:[5368746632]:64)
0x000000014000238d  e9 69 ff ff ff                jmp        00000001400022FBh ; jmp(@0x1400022fb)
0x0000000140002392  66 0f 1f 44 00 00             nop        [rax+rax] ; nop
0x0000000140002398  e8 43 00 00 00                call       00000001400023E0h ; call(@0x1400023e0)
0x000000014000239d  b8 01 00 00 00                mov        eax,1 ; mov(eax:32, 1#32)
0x00000001400023a2  48 83 c4 38                   add        rsp,38h ; add(rsp:64, 56#64)
0x00000001400023a6  c3                            ret        ; ret
0x00000001400023a7  66 0f 1f 84 00 00 00 00 .     nop        [rax+rax] ; nop
0x00000001400023b0  e8 8b fd ff ff                call       0000000140002140h ; call(@0x140002140)
0x00000001400023b5  e9 74 ff ff ff                jmp        000000014000232Eh ; jmp(@0x14000232e)
0x00000001400023ba  66 0f 1f 44 00 00             nop        [rax+rax] ; nop
0x00000001400023c0  48 8d 0d 99 5d 00 00          lea        rcx,[140008160h] ; lea(rcx:64, ds:[5368742240]:0)
0x00000001400023c7  ff 15 f3 6e 00 00             call       qword ptr [1400092C0h] ; call(ds:[5368746688]:64)
0x00000001400023cd  e9 1f ff ff ff                jmp        00000001400022F1h ; jmp(@0x1400022f1)
0x00000001400023d2  90                            nop        ; nop
0x00000001400023d3  90                            nop        ; nop
0x00000001400023d4  90                            nop        ; nop
0x00000001400023d5  90                            nop        ; nop
0x00000001400023d6  90                            nop        ; nop
0x00000001400023d7  90                            nop        ; nop
0x00000001400023d8  90                            nop        ; nop
0x00000001400023d9  90                            nop        ; nop
0x00000001400023da  90                            nop        ; nop
0x00000001400023db  90                            nop        ; nop
0x00000001400023dc  90                            nop        ; nop
0x00000001400023dd  90                            nop        ; nop
0x00000001400023de  90                            nop        ; nop
0x00000001400023df  90                            nop        ; nop

;; ============================================================
;; function _fpreset [0x00000001400023e0..0x00000001400023f0) (16 bytes)
;;   confidence: observed 1.000
;;   sources:   symbol, call
;; ============================================================
0x00000001400023e0  db e3                         fninit     ; opaque(fninit)
0x00000001400023e2  c3                            ret        ; ret
0x00000001400023e3  90                            nop        ; nop
0x00000001400023e4  90                            nop        ; nop
0x00000001400023e5  90                            nop        ; nop
0x00000001400023e6  90                            nop        ; nop
0x00000001400023e7  90                            nop        ; nop
0x00000001400023e8  90                            nop        ; nop
0x00000001400023e9  90                            nop        ; nop
0x00000001400023ea  90                            nop        ; nop
0x00000001400023eb  90                            nop        ; nop
0x00000001400023ec  90                            nop        ; nop
0x00000001400023ed  90                            nop        ; nop
0x00000001400023ee  90                            nop        ; nop
0x00000001400023ef  90                            nop        ; nop

;; ============================================================
;; function _ValidateImageBase [0x00000001400023f0..0x0000000140002420) (48 bytes)
;;   confidence: observed 1.000
;;   sources:   symbol
;; ============================================================
0x00000001400023f0  31 c0                         xor        eax,eax ; xor(eax:32, eax:32)
0x00000001400023f2  66 81 39 4d 5a                cmp        word ptr [rcx],5A4Dh ; cmp(ds:[rcx]:16, 23117#16)
0x00000001400023f7  75 0f                         jne        short 0000000140002408h ; jcc.ne(@0x140002408)
0x00000001400023f9  48 63 51 3c                   movsxd     rdx,[rcx+3Ch] ; mov(rdx:64, ds:[rcx+60]:32)
0x00000001400023fd  48 01 d1                      add        rcx,rdx ; add(rcx:64, rdx:64)
0x0000000140002400  81 39 50 45 00 00             cmp        dword ptr [rcx],4550h ; cmp(ds:[rcx]:32, 17744#32)
0x0000000140002406  74 08                         je         short 0000000140002410h ; jcc.eq(@0x140002410)
0x0000000140002408  c3                            ret        ; ret
0x0000000140002409  0f 1f 80 00 00 00 00          nop        [rax] ; nop
0x0000000140002410  31 c0                         xor        eax,eax ; xor(eax:32, eax:32)
0x0000000140002412  66 81 79 18 0b 02             cmp        word ptr [rcx+18h],20Bh ; cmp(ds:[rcx+24]:16, 523#16)
0x0000000140002418  0f 94 c0                      sete       al ; opaque(sete)
0x000000014000241b  c3                            ret        ; ret
0x000000014000241c  0f 1f 40 00                   nop        [rax] ; nop

;; ============================================================
;; function _FindPESection [0x0000000140002420..0x0000000140002470) (80 bytes)
;;   confidence: observed 1.000
;;   sources:   symbol
;; ============================================================
0x0000000140002420  48 63 41 3c                   movsxd     rax,[rcx+3Ch] ; mov(rax:64, ds:[rcx+60]:32)
0x0000000140002424  48 01 c8                      add        rax,rcx ; add(rax:64, rcx:64)
0x0000000140002427  0f b7 48 06                   movzx      ecx,word ptr [rax+6] ; mov(ecx:32, ds:[rax+6]:16)
0x000000014000242b  66 85 c9                      test       cx,cx ; test(cx:16, cx:16)
0x000000014000242e  74 3d                         je         short 000000014000246Dh ; jcc.eq(@0x14000246d)
0x0000000140002430  44 0f b7 40 14                movzx      r8d,word ptr [rax+14h] ; mov(r8d:32, ds:[rax+20]:16)
0x0000000140002435  83 e9 01                      sub        ecx,1 ; sub(ecx:32, 1#32)
0x0000000140002438  48 8d 0c 89                   lea        rcx,[rcx+rcx*4] ; lea(rcx:64, ds:[rcx+rcx*4]:0)
0x000000014000243c  4a 8d 44 00 18                lea        rax,[rax+r8+18h] ; lea(rax:64, ds:[rax+r8*1+24]:0)
0x0000000140002441  4c 8d 4c c8 28                lea        r9,[rax+rcx*8+28h] ; lea(r9:64, ds:[rax+rcx*8+40]:0)
0x0000000140002446  66 2e 0f 1f 84 00 00 00 .     nop        [rax+rax] ; nop
0x0000000140002450  44 8b 40 0c                   mov        r8d,[rax+0Ch] ; mov(r8d:32, ds:[rax+12]:32)
0x0000000140002454  4c 89 c1                      mov        rcx,r8 ; mov(rcx:64, r8:64)
0x0000000140002457  4c 39 c2                      cmp        rdx,r8 ; cmp(rdx:64, r8:64)
0x000000014000245a  72 08                         jb         short 0000000140002464h ; jcc.b(@0x140002464)
0x000000014000245c  03 48 08                      add        ecx,[rax+8] ; add(ecx:32, ds:[rax+8]:32)
0x000000014000245f  48 39 ca                      cmp        rdx,rcx ; cmp(rdx:64, rcx:64)
0x0000000140002462  72 0b                         jb         short 000000014000246Fh ; jcc.b(@0x14000246f)
0x0000000140002464  48 83 c0 28                   add        rax,28h ; add(rax:64, 40#64)
0x0000000140002468  4c 39 c8                      cmp        rax,r9 ; cmp(rax:64, r9:64)
0x000000014000246b  75 e3                         jne        short 0000000140002450h ; jcc.ne(@0x140002450)
0x000000014000246d  31 c0                         xor        eax,eax ; xor(eax:32, eax:32)
0x000000014000246f  c3                            ret        ; ret

;; ============================================================
;; function _FindPESectionByName [0x0000000140002470..0x0000000140002510) (160 bytes)
;;   confidence: observed 1.000
;;   sources:   symbol
;; ============================================================
0x0000000140002470  55                            push       rbp ; push(rbp:64)
0x0000000140002471  57                            push       rdi ; push(rdi:64)
0x0000000140002472  56                            push       rsi ; push(rsi:64)
0x0000000140002473  53                            push       rbx ; push(rbx:64)
0x0000000140002474  48 83 ec 28                   sub        rsp,28h ; sub(rsp:64, 40#64)
0x0000000140002478  48 89 cf                      mov        rdi,rcx ; mov(rdi:64, rcx:64)
0x000000014000247b  e8 e0 04 00 00                call       0000000140002960h ; call(@0x140002960)
0x0000000140002480  48 83 f8 08                   cmp        rax,8 ; cmp(rax:64, 8#64)
0x0000000140002484  77 0e                         ja         short 0000000140002494h ; jcc.a(@0x140002494)
0x0000000140002486  48 8b 05 73 1f 00 00          mov        rax,[140004400h] ; mov(rax:64, ds:[5368726528]:64)
0x000000014000248d  66 81 38 4d 5a                cmp        word ptr [rax],5A4Dh ; cmp(ds:[rax]:16, 23117#16)
0x0000000140002492  74 14                         je         short 00000001400024A8h ; jcc.eq(@0x1400024a8)
0x0000000140002494  31 db                         xor        ebx,ebx ; xor(ebx:32, ebx:32)
0x0000000140002496  48 89 d8                      mov        rax,rbx ; mov(rax:64, rbx:64)
0x0000000140002499  48 83 c4 28                   add        rsp,28h ; add(rsp:64, 40#64)
0x000000014000249d  5b                            pop        rbx ; pop(rbx:64)
0x000000014000249e  5e                            pop        rsi ; pop(rsi:64)
0x000000014000249f  5f                            pop        rdi ; pop(rdi:64)
0x00000001400024a0  5d                            pop        rbp ; pop(rbp:64)
0x00000001400024a1  c3                            ret        ; ret
0x00000001400024a2  66 0f 1f 44 00 00             nop        [rax+rax] ; nop
0x00000001400024a8  48 63 68 3c                   movsxd     rbp,[rax+3Ch] ; mov(rbp:64, ds:[rax+60]:32)
0x00000001400024ac  48 01 c5                      add        rbp,rax ; add(rbp:64, rax:64)
0x00000001400024af  81 7d 00 50 45 00 00          cmp        dword ptr [rbp],4550h ; cmp(ss:[rbp]:32, 17744#32)
0x00000001400024b6  75 dc                         jne        short 0000000140002494h ; jcc.ne(@0x140002494)
0x00000001400024b8  66 81 7d 18 0b 02             cmp        word ptr [rbp+18h],20Bh ; cmp(ss:[rbp+24]:16, 523#16)
0x00000001400024be  75 d4                         jne        short 0000000140002494h ; jcc.ne(@0x140002494)
0x00000001400024c0  66 83 7d 06 00                cmp        word ptr [rbp+6],0 ; cmp(ss:[rbp+6]:16, 0#16)
0x00000001400024c5  74 cd                         je         short 0000000140002494h ; jcc.eq(@0x140002494)
0x00000001400024c7  0f b7 45 14                   movzx      eax,word ptr [rbp+14h] ; mov(eax:32, ss:[rbp+20]:16)
0x00000001400024cb  31 f6                         xor        esi,esi ; xor(esi:32, esi:32)
0x00000001400024cd  48 8d 5c 05 18                lea        rbx,[rbp+rax+18h] ; lea(rbx:64, ss:[rbp+rax*1+24]:0)
0x00000001400024d2  0f 1f 00                      nop        [rax] ; nop
0x00000001400024d5  66 66 2e 0f 1f 84 00 00 .     nop        [rax+rax] ; nop
0x00000001400024e0  41 b8 08 00 00 00             mov        r8d,8 ; mov(r8d:32, 8#32)
0x00000001400024e6  48 89 fa                      mov        rdx,rdi ; mov(rdx:64, rdi:64)
0x00000001400024e9  48 89 d9                      mov        rcx,rbx ; mov(rcx:64, rbx:64)
0x00000001400024ec  e8 77 04 00 00                call       0000000140002968h ; call(@0x140002968)
0x00000001400024f1  85 c0                         test       eax,eax ; test(eax:32, eax:32)
0x00000001400024f3  74 a1                         je         short 0000000140002496h ; jcc.eq(@0x140002496)
0x00000001400024f5  0f b7 45 06                   movzx      eax,word ptr [rbp+6] ; mov(eax:32, ss:[rbp+6]:16)
0x00000001400024f9  83 c6 01                      add        esi,1 ; add(esi:32, 1#32)
0x00000001400024fc  48 83 c3 28                   add        rbx,28h ; add(rbx:64, 40#64)
0x0000000140002500  39 c6                         cmp        esi,eax ; cmp(esi:32, eax:32)
0x0000000140002502  72 dc                         jb         short 00000001400024E0h ; jcc.b(@0x1400024e0)
0x0000000140002504  eb 8e                         jmp        short 0000000140002494h ; jmp(@0x140002494)
0x0000000140002506  66 2e 0f 1f 84 00 00 00 .     nop        [rax+rax] ; nop

;; ============================================================
;; function __mingw_GetSectionForAddress [0x0000000140002510..0x0000000140002590) (128 bytes)
;;   confidence: observed 1.000
;;   sources:   symbol, call
;; ============================================================
0x0000000140002510  48 8b 15 e9 1e 00 00          mov        rdx,[140004400h] ; mov(rdx:64, ds:[5368726528]:64)
0x0000000140002517  31 c0                         xor        eax,eax ; xor(eax:32, eax:32)
0x0000000140002519  66 81 3a 4d 5a                cmp        word ptr [rdx],5A4Dh ; cmp(ds:[rdx]:16, 23117#16)
0x000000014000251e  75 10                         jne        short 0000000140002530h ; jcc.ne(@0x140002530)
0x0000000140002520  4c 63 42 3c                   movsxd     r8,[rdx+3Ch] ; mov(r8:64, ds:[rdx+60]:32)
0x0000000140002524  49 01 d0                      add        r8,rdx ; add(r8:64, rdx:64)
0x0000000140002527  41 81 38 50 45 00 00          cmp        dword ptr [r8],4550h ; cmp(ds:[r8]:32, 17744#32)
0x000000014000252e  74 08                         je         short 0000000140002538h ; jcc.eq(@0x140002538)
0x0000000140002530  c3                            ret        ; ret
0x0000000140002531  0f 1f 80 00 00 00 00          nop        [rax] ; nop
0x0000000140002538  66 41 81 78 18 0b 02          cmp        word ptr [r8+18h],20Bh ; cmp(ds:[r8+24]:16, 523#16)
0x000000014000253f  75 ef                         jne        short 0000000140002530h ; jcc.ne(@0x140002530)
0x0000000140002541  45 0f b7 48 06                movzx      r9d,word ptr [r8+6] ; mov(r9d:32, ds:[r8+6]:16)
0x0000000140002546  66 45 85 c9                   test       r9w,r9w ; test(r9w:16, r9w:16)
0x000000014000254a  74 e4                         je         short 0000000140002530h ; jcc.eq(@0x140002530)
0x000000014000254c  41 0f b7 40 14                movzx      eax,word ptr [r8+14h] ; mov(eax:32, ds:[r8+20]:16)
0x0000000140002551  48 29 d1                      sub        rcx,rdx ; sub(rcx:64, rdx:64)
0x0000000140002554  41 8d 51 ff                   lea        edx,[r9-1] ; lea(edx:32, ds:[r9-1]:0)
0x0000000140002558  48 8d 14 92                   lea        rdx,[rdx+rdx*4] ; lea(rdx:64, ds:[rdx+rdx*4]:0)
0x000000014000255c  49 8d 44 00 18                lea        rax,[r8+rax+18h] ; lea(rax:64, ds:[r8+rax*1+24]:0)
0x0000000140002561  4c 8d 4c d0 28                lea        r9,[rax+rdx*8+28h] ; lea(r9:64, ds:[rax+rdx*8+40]:0)
0x0000000140002566  66 2e 0f 1f 84 00 00 00 .     nop        [rax+rax] ; nop
0x0000000140002570  44 8b 40 0c                   mov        r8d,[rax+0Ch] ; mov(r8d:32, ds:[rax+12]:32)
0x0000000140002574  4c 89 c2                      mov        rdx,r8 ; mov(rdx:64, r8:64)
0x0000000140002577  4c 39 c1                      cmp        rcx,r8 ; cmp(rcx:64, r8:64)
0x000000014000257a  72 08                         jb         short 0000000140002584h ; jcc.b(@0x140002584)
0x000000014000257c  03 50 08                      add        edx,[rax+8] ; add(edx:32, ds:[rax+8]:32)
0x000000014000257f  48 39 d1                      cmp        rcx,rdx ; cmp(rcx:64, rdx:64)
0x0000000140002582  72 ac                         jb         short 0000000140002530h ; jcc.b(@0x140002530)
0x0000000140002584  48 83 c0 28                   add        rax,28h ; add(rax:64, 40#64)
0x0000000140002588  4c 39 c8                      cmp        rax,r9 ; cmp(rax:64, r9:64)
0x000000014000258b  75 e3                         jne        short 0000000140002570h ; jcc.ne(@0x140002570)
0x000000014000258d  31 c0                         xor        eax,eax ; xor(eax:32, eax:32)
0x000000014000258f  c3                            ret        ; ret

;; ============================================================
;; function __mingw_GetSectionCount [0x0000000140002590..0x00000001400025d0) (64 bytes)
;;   confidence: observed 1.000
;;   sources:   symbol, call
;; ============================================================
0x0000000140002590  48 8b 05 69 1e 00 00          mov        rax,[140004400h] ; mov(rax:64, ds:[5368726528]:64)
0x0000000140002597  31 c9                         xor        ecx,ecx ; xor(ecx:32, ecx:32)
0x0000000140002599  66 81 38 4d 5a                cmp        word ptr [rax],5A4Dh ; cmp(ds:[rax]:16, 23117#16)
0x000000014000259e  75 0f                         jne        short 00000001400025AFh ; jcc.ne(@0x1400025af)
0x00000001400025a0  48 63 50 3c                   movsxd     rdx,[rax+3Ch] ; mov(rdx:64, ds:[rax+60]:32)
0x00000001400025a4  48 01 d0                      add        rax,rdx ; add(rax:64, rdx:64)
0x00000001400025a7  81 38 50 45 00 00             cmp        dword ptr [rax],4550h ; cmp(ds:[rax]:32, 17744#32)
0x00000001400025ad  74 09                         je         short 00000001400025B8h ; jcc.eq(@0x1400025b8)
0x00000001400025af  89 c8                         mov        eax,ecx ; mov(eax:32, ecx:32)
0x00000001400025b1  c3                            ret        ; ret
0x00000001400025b2  66 0f 1f 44 00 00             nop        [rax+rax] ; nop
0x00000001400025b8  66 81 78 18 0b 02             cmp        word ptr [rax+18h],20Bh ; cmp(ds:[rax+24]:16, 523#16)
0x00000001400025be  75 ef                         jne        short 00000001400025AFh ; jcc.ne(@0x1400025af)
0x00000001400025c0  0f b7 48 06                   movzx      ecx,word ptr [rax+6] ; mov(ecx:32, ds:[rax+6]:16)
0x00000001400025c4  89 c8                         mov        eax,ecx ; mov(eax:32, ecx:32)
0x00000001400025c6  c3                            ret        ; ret
0x00000001400025c7  66 0f 1f 84 00 00 00 00 .     nop        [rax+rax] ; nop

;; ============================================================
;; function _FindPESectionExec [0x00000001400025d0..0x0000000140002650) (128 bytes)
;;   confidence: observed 1.000
;;   sources:   symbol
;; ============================================================
0x00000001400025d0  4c 8b 05 29 1e 00 00          mov        r8,[140004400h] ; mov(r8:64, ds:[5368726528]:64)
0x00000001400025d7  31 c0                         xor        eax,eax ; xor(eax:32, eax:32)
0x00000001400025d9  66 41 81 38 4d 5a             cmp        word ptr [r8],5A4Dh ; cmp(ds:[r8]:16, 23117#16)
0x00000001400025df  75 0f                         jne        short 00000001400025F0h ; jcc.ne(@0x1400025f0)
0x00000001400025e1  49 63 50 3c                   movsxd     rdx,[r8+3Ch] ; mov(rdx:64, ds:[r8+60]:32)
0x00000001400025e5  4c 01 c2                      add        rdx,r8 ; add(rdx:64, r8:64)
0x00000001400025e8  81 3a 50 45 00 00             cmp        dword ptr [rdx],4550h ; cmp(ds:[rdx]:32, 17744#32)
0x00000001400025ee  74 08                         je         short 00000001400025F8h ; jcc.eq(@0x1400025f8)
0x00000001400025f0  c3                            ret        ; ret
0x00000001400025f1  0f 1f 80 00 00 00 00          nop        [rax] ; nop
0x00000001400025f8  66 81 7a 18 0b 02             cmp        word ptr [rdx+18h],20Bh ; cmp(ds:[rdx+24]:16, 523#16)
0x00000001400025fe  75 f0                         jne        short 00000001400025F0h ; jcc.ne(@0x1400025f0)
0x0000000140002600  44 0f b7 42 06                movzx      r8d,word ptr [rdx+6] ; mov(r8d:32, ds:[rdx+6]:16)
0x0000000140002605  66 45 85 c0                   test       r8w,r8w ; test(r8w:16, r8w:16)
0x0000000140002609  74 e5                         je         short 00000001400025F0h ; jcc.eq(@0x1400025f0)
0x000000014000260b  0f b7 42 14                   movzx      eax,word ptr [rdx+14h] ; mov(eax:32, ds:[rdx+20]:16)
0x000000014000260f  48 8d 44 02 18                lea        rax,[rdx+rax+18h] ; lea(rax:64, ds:[rdx+rax*1+24]:0)
0x0000000140002614  41 8d 50 ff                   lea        edx,[r8-1] ; lea(edx:32, ds:[r8-1]:0)
0x0000000140002618  48 8d 14 92                   lea        rdx,[rdx+rdx*4] ; lea(rdx:64, ds:[rdx+rdx*4]:0)
0x000000014000261c  48 8d 54 d0 28                lea        rdx,[rax+rdx*8+28h] ; lea(rdx:64, ds:[rax+rdx*8+40]:0)
0x0000000140002621  0f 1f 40 00                   nop        [rax] ; nop
0x0000000140002625  66 66 2e 0f 1f 84 00 00 .     nop        [rax+rax] ; nop
0x0000000140002630  f6 40 27 20                   test       byte ptr [rax+27h],20h ; test(ds:[rax+39]:8, 32#8)
0x0000000140002634  74 09                         je         short 000000014000263Fh ; jcc.eq(@0x14000263f)
0x0000000140002636  48 85 c9                      test       rcx,rcx ; test(rcx:64, rcx:64)
0x0000000140002639  74 b5                         je         short 00000001400025F0h ; jcc.eq(@0x1400025f0)
0x000000014000263b  48 83 e9 01                   sub        rcx,1 ; sub(rcx:64, 1#64)
0x000000014000263f  48 83 c0 28                   add        rax,28h ; add(rax:64, 40#64)
0x0000000140002643  48 39 c2                      cmp        rdx,rax ; cmp(rdx:64, rax:64)
0x0000000140002646  75 e8                         jne        short 0000000140002630h ; jcc.ne(@0x140002630)
0x0000000140002648  31 c0                         xor        eax,eax ; xor(eax:32, eax:32)
0x000000014000264a  c3                            ret        ; ret
0x000000014000264b  0f 1f 44 00 00                nop        [rax+rax] ; nop

;; ============================================================
;; function _GetPEImageBase [0x0000000140002650..0x0000000140002690) (64 bytes)
;;   confidence: observed 1.000
;;   sources:   symbol, call
;; ============================================================
0x0000000140002650  48 8b 05 a9 1d 00 00          mov        rax,[140004400h] ; mov(rax:64, ds:[5368726528]:64)
0x0000000140002657  31 d2                         xor        edx,edx ; xor(edx:32, edx:32)
0x0000000140002659  66 81 38 4d 5a                cmp        word ptr [rax],5A4Dh ; cmp(ds:[rax]:16, 23117#16)
0x000000014000265e  75 0f                         jne        short 000000014000266Fh ; jcc.ne(@0x14000266f)
0x0000000140002660  48 63 48 3c                   movsxd     rcx,[rax+3Ch] ; mov(rcx:64, ds:[rax+60]:32)
0x0000000140002664  48 01 c1                      add        rcx,rax ; add(rcx:64, rax:64)
0x0000000140002667  81 39 50 45 00 00             cmp        dword ptr [rcx],4550h ; cmp(ds:[rcx]:32, 17744#32)
0x000000014000266d  74 09                         je         short 0000000140002678h ; jcc.eq(@0x140002678)
0x000000014000266f  48 89 d0                      mov        rax,rdx ; mov(rax:64, rdx:64)
0x0000000140002672  c3                            ret        ; ret
0x0000000140002673  0f 1f 44 00 00                nop        [rax+rax] ; nop
0x0000000140002678  66 81 79 18 0b 02             cmp        word ptr [rcx+18h],20Bh ; cmp(ds:[rcx+24]:16, 523#16)
0x000000014000267e  48 0f 44 d0                   cmove      rdx,rax ; opaque(cmove)
0x0000000140002682  48 89 d0                      mov        rax,rdx ; mov(rax:64, rdx:64)
0x0000000140002685  c3                            ret        ; ret
0x0000000140002686  66 2e 0f 1f 84 00 00 00 .     nop        [rax+rax] ; nop

;; ============================================================
;; function _IsNonwritableInCurrentImage [0x0000000140002690..0x0000000140002720) (144 bytes)
;;   confidence: observed 1.000
;;   sources:   symbol
;; ============================================================
0x0000000140002690  48 8b 15 69 1d 00 00          mov        rdx,[140004400h] ; mov(rdx:64, ds:[5368726528]:64)
0x0000000140002697  31 c0                         xor        eax,eax ; xor(eax:32, eax:32)
0x0000000140002699  66 81 3a 4d 5a                cmp        word ptr [rdx],5A4Dh ; cmp(ds:[rdx]:16, 23117#16)
0x000000014000269e  75 10                         jne        short 00000001400026B0h ; jcc.ne(@0x1400026b0)
0x00000001400026a0  4c 63 42 3c                   movsxd     r8,[rdx+3Ch] ; mov(r8:64, ds:[rdx+60]:32)
0x00000001400026a4  49 01 d0                      add        r8,rdx ; add(r8:64, rdx:64)
0x00000001400026a7  41 81 38 50 45 00 00          cmp        dword ptr [r8],4550h ; cmp(ds:[r8]:32, 17744#32)
0x00000001400026ae  74 08                         je         short 00000001400026B8h ; jcc.eq(@0x1400026b8)
0x00000001400026b0  c3                            ret        ; ret
0x00000001400026b1  0f 1f 80 00 00 00 00          nop        [rax] ; nop
0x00000001400026b8  66 41 81 78 18 0b 02          cmp        word ptr [r8+18h],20Bh ; cmp(ds:[r8+24]:16, 523#16)
0x00000001400026bf  75 ef                         jne        short 00000001400026B0h ; jcc.ne(@0x1400026b0)
0x00000001400026c1  45 0f b7 48 06                movzx      r9d,word ptr [r8+6] ; mov(r9d:32, ds:[r8+6]:16)
0x00000001400026c6  66 45 85 c9                   test       r9w,r9w ; test(r9w:16, r9w:16)
0x00000001400026ca  74 e4                         je         short 00000001400026B0h ; jcc.eq(@0x1400026b0)
0x00000001400026cc  41 0f b7 40 14                movzx      eax,word ptr [r8+14h] ; mov(eax:32, ds:[r8+20]:16)
0x00000001400026d1  48 29 d1                      sub        rcx,rdx ; sub(rcx:64, rdx:64)
0x00000001400026d4  41 8d 51 ff                   lea        edx,[r9-1] ; lea(edx:32, ds:[r9-1]:0)
0x00000001400026d8  48 8d 14 92                   lea        rdx,[rdx+rdx*4] ; lea(rdx:64, ds:[rdx+rdx*4]:0)
0x00000001400026dc  49 8d 44 00 18                lea        rax,[r8+rax+18h] ; lea(rax:64, ds:[r8+rax*1+24]:0)
0x00000001400026e1  4c 8d 4c d0 28                lea        r9,[rax+rdx*8+28h] ; lea(r9:64, ds:[rax+rdx*8+40]:0)
0x00000001400026e6  66 2e 0f 1f 84 00 00 00 .     nop        [rax+rax] ; nop
0x00000001400026f0  44 8b 40 0c                   mov        r8d,[rax+0Ch] ; mov(r8d:32, ds:[rax+12]:32)
0x00000001400026f4  4c 89 c2                      mov        rdx,r8 ; mov(rdx:64, r8:64)
0x00000001400026f7  4c 39 c1                      cmp        rcx,r8 ; cmp(rcx:64, r8:64)
0x00000001400026fa  72 08                         jb         short 0000000140002704h ; jcc.b(@0x140002704)
0x00000001400026fc  03 50 08                      add        edx,[rax+8] ; add(edx:32, ds:[rax+8]:32)
0x00000001400026ff  48 39 d1                      cmp        rcx,rdx ; cmp(rcx:64, rdx:64)
0x0000000140002702  72 0c                         jb         short 0000000140002710h ; jcc.b(@0x140002710)
0x0000000140002704  48 83 c0 28                   add        rax,28h ; add(rax:64, 40#64)
0x0000000140002708  49 39 c1                      cmp        r9,rax ; cmp(r9:64, rax:64)
0x000000014000270b  75 e3                         jne        short 00000001400026F0h ; jcc.ne(@0x1400026f0)
0x000000014000270d  31 c0                         xor        eax,eax ; xor(eax:32, eax:32)
0x000000014000270f  c3                            ret        ; ret
0x0000000140002710  8b 40 24                      mov        eax,[rax+24h] ; mov(eax:32, ds:[rax+36]:32)
0x0000000140002713  f7 d0                         not        eax ; not(eax:32)
0x0000000140002715  c1 e8 1f                      shr        eax,1Fh ; shr(eax:32, 31#8)
0x0000000140002718  c3                            ret        ; ret
0x0000000140002719  0f 1f 80 00 00 00 00          nop        [rax] ; nop

;; ============================================================
;; function __mingw_enum_import_library_names [0x0000000140002720..0x00000001400027e0) (192 bytes)
;;   confidence: observed 1.000
;;   sources:   symbol
;; ============================================================
0x0000000140002720  4c 8b 1d d9 1c 00 00          mov        r11,[140004400h] ; mov(r11:64, ds:[5368726528]:64)
0x0000000140002727  45 31 c0                      xor        r8d,r8d ; xor(r8d:32, r8d:32)
0x000000014000272a  66 41 81 3b 4d 5a             cmp        word ptr [r11],5A4Dh ; cmp(ds:[r11]:16, 23117#16)
0x0000000140002730  75 0f                         jne        short 0000000140002741h ; jcc.ne(@0x140002741)
0x0000000140002732  49 63 53 3c                   movsxd     rdx,[r11+3Ch] ; mov(rdx:64, ds:[r11+60]:32)
0x0000000140002736  4c 01 da                      add        rdx,r11 ; add(rdx:64, r11:64)
0x0000000140002739  81 3a 50 45 00 00             cmp        dword ptr [rdx],4550h ; cmp(ds:[rdx]:32, 17744#32)
0x000000014000273f  74 07                         je         short 0000000140002748h ; jcc.eq(@0x140002748)
0x0000000140002741  4c 89 c0                      mov        rax,r8 ; mov(rax:64, r8:64)
0x0000000140002744  c3                            ret        ; ret
0x0000000140002745  0f 1f 00                      nop        [rax] ; nop
0x0000000140002748  66 81 7a 18 0b 02             cmp        word ptr [rdx+18h],20Bh ; cmp(ds:[rdx+24]:16, 523#16)
0x000000014000274e  75 f1                         jne        short 0000000140002741h ; jcc.ne(@0x140002741)
0x0000000140002750  8b 82 90 00 00 00             mov        eax,[rdx+90h] ; mov(eax:32, ds:[rdx+144]:32)
0x0000000140002756  85 c0                         test       eax,eax ; test(eax:32, eax:32)
0x0000000140002758  74 e7                         je         short 0000000140002741h ; jcc.eq(@0x140002741)
0x000000014000275a  44 0f b7 4a 06                movzx      r9d,word ptr [rdx+6] ; mov(r9d:32, ds:[rdx+6]:16)
0x000000014000275f  66 45 85 c9                   test       r9w,r9w ; test(r9w:16, r9w:16)
0x0000000140002763  74 dc                         je         short 0000000140002741h ; jcc.eq(@0x140002741)
0x0000000140002765  44 0f b7 42 14                movzx      r8d,word ptr [rdx+14h] ; mov(r8d:32, ds:[rdx+20]:16)
0x000000014000276a  4a 8d 54 02 18                lea        rdx,[rdx+r8+18h] ; lea(rdx:64, ds:[rdx+r8*1+24]:0)
0x000000014000276f  45 8d 41 ff                   lea        r8d,[r9-1] ; lea(r8d:32, ds:[r9-1]:0)
0x0000000140002773  4f 8d 04 80                   lea        r8,[r8+r8*4] ; lea(r8:64, ds:[r8+r8*4]:0)
0x0000000140002777  4e 8d 54 c2 28                lea        r10,[rdx+r8*8+28h] ; lea(r10:64, ds:[rdx+r8*8+40]:0)
0x000000014000277c  0f 1f 40 00                   nop        [rax] ; nop
0x0000000140002780  44 8b 4a 0c                   mov        r9d,[rdx+0Ch] ; mov(r9d:32, ds:[rdx+12]:32)
0x0000000140002784  4d 89 c8                      mov        r8,r9 ; mov(r8:64, r9:64)
0x0000000140002787  4c 39 c8                      cmp        rax,r9 ; cmp(rax:64, r9:64)
0x000000014000278a  72 09                         jb         short 0000000140002795h ; jcc.b(@0x140002795)
0x000000014000278c  44 03 42 08                   add        r8d,[rdx+8] ; add(r8d:32, ds:[rdx+8]:32)
0x0000000140002790  4c 39 c0                      cmp        rax,r8 ; cmp(rax:64, r8:64)
0x0000000140002793  72 13                         jb         short 00000001400027A8h ; jcc.b(@0x1400027a8)
0x0000000140002795  48 83 c2 28                   add        rdx,28h ; add(rdx:64, 40#64)
0x0000000140002799  49 39 d2                      cmp        r10,rdx ; cmp(r10:64, rdx:64)
0x000000014000279c  75 e2                         jne        short 0000000140002780h ; jcc.ne(@0x140002780)
0x000000014000279e  45 31 c0                      xor        r8d,r8d ; xor(r8d:32, r8d:32)
0x00000001400027a1  4c 89 c0                      mov        rax,r8 ; mov(rax:64, r8:64)
0x00000001400027a4  c3                            ret        ; ret
0x00000001400027a5  0f 1f 00                      nop        [rax] ; nop
0x00000001400027a8  4c 01 d8                      add        rax,r11 ; add(rax:64, r11:64)
0x00000001400027ab  eb 0a                         jmp        short 00000001400027B7h ; jmp(@0x1400027b7)
0x00000001400027ad  0f 1f 00                      nop        [rax] ; nop
0x00000001400027b0  83 e9 01                      sub        ecx,1 ; sub(ecx:32, 1#32)
0x00000001400027b3  48 83 c0 14                   add        rax,14h ; add(rax:64, 20#64)
0x00000001400027b7  44 8b 40 04                   mov        r8d,[rax+4] ; mov(r8d:32, ds:[rax+4]:32)
0x00000001400027bb  45 85 c0                      test       r8d,r8d ; test(r8d:32, r8d:32)
0x00000001400027be  75 07                         jne        short 00000001400027C7h ; jcc.ne(@0x1400027c7)
0x00000001400027c0  8b 50 0c                      mov        edx,[rax+0Ch] ; mov(edx:32, ds:[rax+12]:32)
0x00000001400027c3  85 d2                         test       edx,edx ; test(edx:32, edx:32)
0x00000001400027c5  74 d7                         je         short 000000014000279Eh ; jcc.eq(@0x14000279e)
0x00000001400027c7  85 c9                         test       ecx,ecx ; test(ecx:32, ecx:32)
0x00000001400027c9  7f e5                         jg         short 00000001400027B0h ; jcc.gt(@0x1400027b0)
0x00000001400027cb  44 8b 40 0c                   mov        r8d,[rax+0Ch] ; mov(r8d:32, ds:[rax+12]:32)
0x00000001400027cf  4d 01 d8                      add        r8,r11 ; add(r8:64, r11:64)
0x00000001400027d2  4c 89 c0                      mov        rax,r8 ; mov(rax:64, r8:64)
0x00000001400027d5  c3                            ret        ; ret
0x00000001400027d6  90                            nop        ; nop
0x00000001400027d7  90                            nop        ; nop
0x00000001400027d8  90                            nop        ; nop
0x00000001400027d9  90                            nop        ; nop
0x00000001400027da  90                            nop        ; nop
0x00000001400027db  90                            nop        ; nop
0x00000001400027dc  90                            nop        ; nop
0x00000001400027dd  90                            nop        ; nop
0x00000001400027de  90                            nop        ; nop
0x00000001400027df  90                            nop        ; nop

;; ============================================================
;; function <unnamed> [0x00000001400027e0..0x0000000140002820) (64 bytes)
;;   confidence: derived 0.850
;;   sources:   call
;; ============================================================
0x00000001400027e0  51                            push       rcx ; push(rcx:64)
0x00000001400027e1  50                            push       rax ; push(rax:64)
0x00000001400027e2  48 3d 00 10 00 00             cmp        rax,1000h ; cmp(rax:64, 4096#64)
0x00000001400027e8  48 8d 4c 24 18                lea        rcx,[rsp+18h] ; lea(rcx:64, ss:[rsp+24]:0)
0x00000001400027ed  72 19                         jb         short 0000000140002808h ; jcc.b(@0x140002808)
0x00000001400027ef  48 81 e9 00 10 00 00          sub        rcx,1000h ; sub(rcx:64, 4096#64)
0x00000001400027f6  48 83 09 00                   or         qword ptr [rcx],0 ; or(ds:[rcx]:64, 0#64)
0x00000001400027fa  48 2d 00 10 00 00             sub        rax,1000h ; sub(rax:64, 4096#64)
0x0000000140002800  48 3d 00 10 00 00             cmp        rax,1000h ; cmp(rax:64, 4096#64)
0x0000000140002806  77 e7                         ja         short 00000001400027EFh ; jcc.a(@0x1400027ef)
0x0000000140002808  48 29 c1                      sub        rcx,rax ; sub(rcx:64, rax:64)
0x000000014000280b  48 83 09 00                   or         qword ptr [rcx],0 ; or(ds:[rcx]:64, 0#64)
0x000000014000280f  58                            pop        rax ; pop(rax:64)
0x0000000140002810  59                            pop        rcx ; pop(rcx:64)
0x0000000140002811  c3                            ret        ; ret
0x0000000140002812  90                            nop        ; nop
0x0000000140002813  90                            nop        ; nop
0x0000000140002814  90                            nop        ; nop
0x0000000140002815  90                            nop        ; nop
0x0000000140002816  90                            nop        ; nop
0x0000000140002817  90                            nop        ; nop
0x0000000140002818  90                            nop        ; nop
0x0000000140002819  90                            nop        ; nop
0x000000014000281a  90                            nop        ; nop
0x000000014000281b  90                            nop        ; nop
0x000000014000281c  90                            nop        ; nop
0x000000014000281d  90                            nop        ; nop
0x000000014000281e  90                            nop        ; nop
0x000000014000281f  90                            nop        ; nop

;; ============================================================
;; function vfprintf [0x0000000140002820..0x0000000140002860) (64 bytes)
;;   confidence: observed 1.000
;;   sources:   symbol, call
;; ============================================================
0x0000000140002820  57                            push       rdi ; push(rdi:64)
0x0000000140002821  56                            push       rsi ; push(rsi:64)
0x0000000140002822  53                            push       rbx ; push(rbx:64)
0x0000000140002823  48 83 ec 30                   sub        rsp,30h ; sub(rsp:64, 48#64)
0x0000000140002827  48 89 cb                      mov        rbx,rcx ; mov(rbx:64, rcx:64)
0x000000014000282a  48 89 d6                      mov        rsi,rdx ; mov(rsi:64, rdx:64)
0x000000014000282d  4c 89 c7                      mov        rdi,r8 ; mov(rdi:64, r8:64)
0x0000000140002830  e8 7b 00 00 00                call       00000001400028B0h ; call(@0x1400028b0)
0x0000000140002835  45 31 c9                      xor        r9d,r9d ; xor(r9d:32, r9d:32)
0x0000000140002838  49 89 f0                      mov        r8,rsi ; mov(r8:64, rsi:64)
0x000000014000283b  48 89 da                      mov        rdx,rbx ; mov(rdx:64, rbx:64)
0x000000014000283e  48 8b 08                      mov        rcx,[rax] ; mov(rcx:64, ds:[rax]:64)
0x0000000140002841  48 89 7c 24 20                mov        [rsp+20h],rdi ; mov(ss:[rsp+32]:64, rdi:64)
0x0000000140002846  e8 3d 01 00 00                call       0000000140002988h ; call(@0x140002988)
0x000000014000284b  48 83 c4 30                   add        rsp,30h ; add(rsp:64, 48#64)
0x000000014000284f  5b                            pop        rbx ; pop(rbx:64)
0x0000000140002850  5e                            pop        rsi ; pop(rsi:64)
0x0000000140002851  5f                            pop        rdi ; pop(rdi:64)
0x0000000140002852  c3                            ret        ; ret
0x0000000140002853  90                            nop        ; nop
0x0000000140002854  90                            nop        ; nop
0x0000000140002855  90                            nop        ; nop
0x0000000140002856  90                            nop        ; nop
0x0000000140002857  90                            nop        ; nop
0x0000000140002858  90                            nop        ; nop
0x0000000140002859  90                            nop        ; nop
0x000000014000285a  90                            nop        ; nop
0x000000014000285b  90                            nop        ; nop
0x000000014000285c  90                            nop        ; nop
0x000000014000285d  90                            nop        ; nop
0x000000014000285e  90                            nop        ; nop
0x000000014000285f  90                            nop        ; nop

;; ============================================================
;; function fprintf [0x0000000140002860..0x00000001400028b0) (80 bytes)
;;   confidence: observed 1.000
;;   sources:   symbol, call
;; ============================================================
0x0000000140002860  57                            push       rdi ; push(rdi:64)
0x0000000140002861  56                            push       rsi ; push(rsi:64)
0x0000000140002862  53                            push       rbx ; push(rbx:64)
0x0000000140002863  48 83 ec 40                   sub        rsp,40h ; sub(rsp:64, 64#64)
0x0000000140002867  48 8d 7c 24 70                lea        rdi,[rsp+70h] ; lea(rdi:64, ss:[rsp+112]:0)
0x000000014000286c  48 89 cb                      mov        rbx,rcx ; mov(rbx:64, rcx:64)
0x000000014000286f  48 89 d6                      mov        rsi,rdx ; mov(rsi:64, rdx:64)
0x0000000140002872  4c 89 44 24 70                mov        [rsp+70h],r8 ; mov(ss:[rsp+112]:64, r8:64)
0x0000000140002877  4c 89 4c 24 78                mov        [rsp+78h],r9 ; mov(ss:[rsp+120]:64, r9:64)
0x000000014000287c  48 89 7c 24 38                mov        [rsp+38h],rdi ; mov(ss:[rsp+56]:64, rdi:64)
0x0000000140002881  e8 2a 00 00 00                call       00000001400028B0h ; call(@0x1400028b0)
0x0000000140002886  45 31 c9                      xor        r9d,r9d ; xor(r9d:32, r9d:32)
0x0000000140002889  49 89 f0                      mov        r8,rsi ; mov(r8:64, rsi:64)
0x000000014000288c  48 89 da                      mov        rdx,rbx ; mov(rdx:64, rbx:64)
0x000000014000288f  48 8b 08                      mov        rcx,[rax] ; mov(rcx:64, ds:[rax]:64)
0x0000000140002892  48 89 7c 24 20                mov        [rsp+20h],rdi ; mov(ss:[rsp+32]:64, rdi:64)
0x0000000140002897  e8 ec 00 00 00                call       0000000140002988h ; call(@0x140002988)
0x000000014000289c  48 83 c4 40                   add        rsp,40h ; add(rsp:64, 64#64)
0x00000001400028a0  5b                            pop        rbx ; pop(rbx:64)
0x00000001400028a1  5e                            pop        rsi ; pop(rsi:64)
0x00000001400028a2  5f                            pop        rdi ; pop(rdi:64)
0x00000001400028a3  c3                            ret        ; ret
0x00000001400028a4  90                            nop        ; nop
0x00000001400028a5  90                            nop        ; nop
0x00000001400028a6  90                            nop        ; nop
0x00000001400028a7  90                            nop        ; nop
0x00000001400028a8  90                            nop        ; nop
0x00000001400028a9  90                            nop        ; nop
0x00000001400028aa  90                            nop        ; nop
0x00000001400028ab  90                            nop        ; nop
0x00000001400028ac  90                            nop        ; nop
0x00000001400028ad  90                            nop        ; nop
0x00000001400028ae  90                            nop        ; nop
0x00000001400028af  90                            nop        ; nop

;; ============================================================
;; function __local_stdio_printf_options [0x00000001400028b0..0x00000001400028c0) (16 bytes)
;;   confidence: observed 1.000
;;   sources:   symbol, call
;; ============================================================
0x00000001400028b0  48 8d 05 a9 07 00 00          lea        rax,[140003060h] ; lea(rax:64, ds:[5368721504]:0)
0x00000001400028b7  c3                            ret        ; ret
0x00000001400028b8  90                            nop        ; nop
0x00000001400028b9  90                            nop        ; nop
0x00000001400028ba  90                            nop        ; nop
0x00000001400028bb  90                            nop        ; nop
0x00000001400028bc  90                            nop        ; nop
0x00000001400028bd  90                            nop        ; nop
0x00000001400028be  90                            nop        ; nop
0x00000001400028bf  90                            nop        ; nop

;; ============================================================
;; function __p___initenv [0x00000001400028c0..0x00000001400028d0) (16 bytes)
;;   confidence: observed 1.000
;;   sources:   symbol, call
;; ============================================================
0x00000001400028c0  48 8b 05 89 1b 00 00          mov        rax,[140004450h] ; mov(rax:64, ds:[5368726608]:64)
0x00000001400028c7  48 8b 00                      mov        rax,[rax] ; mov(rax:64, ds:[rax]:64)
0x00000001400028ca  c3                            ret        ; ret
0x00000001400028cb  90                            nop        ; nop
0x00000001400028cc  90                            nop        ; nop
0x00000001400028cd  90                            nop        ; nop
0x00000001400028ce  90                            nop        ; nop
0x00000001400028cf  90                            nop        ; nop

;; ============================================================
;; function _amsg_exit [0x00000001400028d0..0x0000000140002900) (48 bytes)
;;   confidence: observed 1.000
;;   sources:   symbol, call
;; ============================================================
0x00000001400028d0  53                            push       rbx ; push(rbx:64)
0x00000001400028d1  48 83 ec 20                   sub        rsp,20h ; sub(rsp:64, 32#64)
0x00000001400028d5  89 cb                         mov        ebx,ecx ; mov(ebx:32, ecx:32)
0x00000001400028d7  b9 02 00 00 00                mov        ecx,2 ; mov(ecx:32, 2#32)
0x00000001400028dc  e8 8f 00 00 00                call       0000000140002970h ; call(@0x140002970)
0x00000001400028e1  41 89 d8                      mov        r8d,ebx ; mov(r8d:32, ebx:32)
0x00000001400028e4  48 8d 15 c5 1a 00 00          lea        rdx,[1400043B0h] ; lea(rdx:64, ds:[5368726448]:0)
0x00000001400028eb  48 89 c1                      mov        rcx,rax ; mov(rcx:64, rax:64)
0x00000001400028ee  e8 6d ff ff ff                call       0000000140002860h ; call(@0x140002860)
0x00000001400028f3  b9 ff 00 00 00                mov        ecx,0FFh ; mov(ecx:32, 255#32)
0x00000001400028f8  e8 d3 00 00 00                call       00000001400029D0h ; call(@0x1400029d0)
0x00000001400028fd  90                            nop        ; nop
0x00000001400028fe  90                            nop        ; nop
0x00000001400028ff  90                            nop        ; nop

;; ============================================================
;; function __getmainargs [0x0000000140002900..0x0000000140002960) (96 bytes)
;;   confidence: observed 1.000
;;   sources:   symbol, call
;; ============================================================
0x0000000140002900  55                            push       rbp ; push(rbp:64)
0x0000000140002901  57                            push       rdi ; push(rdi:64)
0x0000000140002902  56                            push       rsi ; push(rsi:64)
0x0000000140002903  53                            push       rbx ; push(rbx:64)
0x0000000140002904  48 83 ec 28                   sub        rsp,28h ; sub(rsp:64, 40#64)
0x0000000140002908  44 89 cd                      mov        ebp,r9d ; mov(ebp:32, r9d:32)
0x000000014000290b  48 89 d6                      mov        rsi,rdx ; mov(rsi:64, rdx:64)
0x000000014000290e  4c 89 c3                      mov        rbx,r8 ; mov(rbx:64, r8:64)
0x0000000140002911  48 89 cf                      mov        rdi,rcx ; mov(rdi:64, rcx:64)
0x0000000140002914  e8 bf 00 00 00                call       00000001400029D8h ; call(@0x1400029d8)
0x0000000140002919  83 fd 01                      cmp        ebp,1 ; cmp(ebp:32, 1#32)
0x000000014000291c  b9 01 00 00 00                mov        ecx,1 ; mov(ecx:32, 1#32)
0x0000000140002921  83 d9 ff                      sbb        ecx,0FFFFFFFFh ; sub(ecx:32, -1#32)
0x0000000140002924  e8 97 00 00 00                call       00000001400029C0h ; call(@0x1400029c0)
0x0000000140002929  e8 7a 00 00 00                call       00000001400029A8h ; call(@0x1400029a8)
0x000000014000292e  8b 00                         mov        eax,[rax] ; mov(eax:32, ds:[rax]:32)
0x0000000140002930  89 07                         mov        [rdi],eax ; mov(ds:[rdi]:32, eax:32)
0x0000000140002932  e8 79 00 00 00                call       00000001400029B0h ; call(@0x1400029b0)
0x0000000140002937  48 8b 00                      mov        rax,[rax] ; mov(rax:64, ds:[rax]:64)
0x000000014000293a  48 89 06                      mov        [rsi],rax ; mov(ds:[rsi]:64, rax:64)
0x000000014000293d  e8 0e 01 00 00                call       0000000140002A50h ; call(@0x140002a50)
0x0000000140002942  48 8b 00                      mov        rax,[rax] ; mov(rax:64, ds:[rax]:64)
0x0000000140002945  48 89 03                      mov        [rbx],rax ; mov(ds:[rbx]:64, rax:64)
0x0000000140002948  48 8b 44 24 70                mov        rax,[rsp+70h] ; mov(rax:64, ss:[rsp+112]:64)
0x000000014000294d  8b 08                         mov        ecx,[rax] ; mov(ecx:32, ds:[rax]:32)
0x000000014000294f  e8 dc 00 00 00                call       0000000140002A30h ; call(@0x140002a30)
0x0000000140002954  31 c0                         xor        eax,eax ; xor(eax:32, eax:32)
0x0000000140002956  48 83 c4 28                   add        rsp,28h ; add(rsp:64, 40#64)
0x000000014000295a  5b                            pop        rbx ; pop(rbx:64)
0x000000014000295b  5e                            pop        rsi ; pop(rsi:64)
0x000000014000295c  5f                            pop        rdi ; pop(rdi:64)
0x000000014000295d  5d                            pop        rbp ; pop(rbp:64)
0x000000014000295e  c3                            ret        ; ret
0x000000014000295f  90                            nop        ; nop

;; ============================================================
;; function strlen [0x0000000140002960..0x0000000140002968) (8 bytes)
;;   confidence: observed 1.000
;;   sources:   symbol, call
;; ============================================================
0x0000000140002960  ff 25 ca 6a 00 00             jmp        qword ptr [140009430h] ; jmp(ds:[5368747056]:64)
0x0000000140002966  90                            nop        ; nop
0x0000000140002967  90                            nop        ; nop

;; ============================================================
;; function strncmp [0x0000000140002968..0x0000000140002970) (8 bytes)
;;   confidence: observed 1.000
;;   sources:   symbol, call
;; ============================================================
0x0000000140002968  ff 25 ca 6a 00 00             jmp        qword ptr [140009438h] ; jmp(ds:[5368747064]:64)
0x000000014000296e  90                            nop        ; nop
0x000000014000296f  90                            nop        ; nop

;; ============================================================
;; function __acrt_iob_func [0x0000000140002970..0x0000000140002978) (8 bytes)
;;   confidence: observed 1.000
;;   sources:   symbol, call
;; ============================================================
0x0000000140002970  ff 25 82 6a 00 00             jmp        qword ptr [1400093F8h] ; jmp(ds:[5368747000]:64)
0x0000000140002976  90                            nop        ; nop
0x0000000140002977  90                            nop        ; nop

;; ============================================================
;; function __p__commode [0x0000000140002978..0x0000000140002980) (8 bytes)
;;   confidence: observed 1.000
;;   sources:   symbol, call
;; ============================================================
0x0000000140002978  ff 25 82 6a 00 00             jmp        qword ptr [140009400h] ; jmp(ds:[5368747008]:64)
0x000000014000297e  90                            nop        ; nop
0x000000014000297f  90                            nop        ; nop

;; ============================================================
;; function __p__fmode [0x0000000140002980..0x0000000140002988) (8 bytes)
;;   confidence: observed 1.000
;;   sources:   symbol, call
;; ============================================================
0x0000000140002980  ff 25 82 6a 00 00             jmp        qword ptr [140009408h] ; jmp(ds:[5368747016]:64)
0x0000000140002986  90                            nop        ; nop
0x0000000140002987  90                            nop        ; nop

;; ============================================================
;; function __stdio_common_vfprintf [0x0000000140002988..0x0000000140002990) (8 bytes)
;;   confidence: observed 1.000
;;   sources:   symbol, call
;; ============================================================
0x0000000140002988  ff 25 82 6a 00 00             jmp        qword ptr [140009410h] ; jmp(ds:[5368747024]:64)
0x000000014000298e  90                            nop        ; nop
0x000000014000298f  90                            nop        ; nop

;; ============================================================
;; function fflush [0x0000000140002990..0x0000000140002998) (8 bytes)
;;   confidence: observed 1.000
;;   sources:   symbol
;; ============================================================
0x0000000140002990  ff 25 82 6a 00 00             jmp        qword ptr [140009418h] ; jmp(ds:[5368747032]:64)
0x0000000140002996  90                            nop        ; nop
0x0000000140002997  90                            nop        ; nop

;; ============================================================
;; function setvbuf [0x0000000140002998..0x00000001400029a0) (8 bytes)
;;   confidence: observed 1.000
;;   sources:   symbol, call
;; ============================================================
0x0000000140002998  ff 25 82 6a 00 00             jmp        qword ptr [140009420h] ; jmp(ds:[5368747040]:64)
0x000000014000299e  90                            nop        ; nop
0x000000014000299f  90                            nop        ; nop

;; ============================================================
;; function __set_app_type [0x00000001400029a0..0x00000001400029a8) (8 bytes)
;;   confidence: observed 1.000
;;   sources:   symbol, call
;; ============================================================
0x00000001400029a0  ff 25 da 69 00 00             jmp        qword ptr [140009380h] ; jmp(ds:[5368746880]:64)
0x00000001400029a6  90                            nop        ; nop
0x00000001400029a7  90                            nop        ; nop

;; ============================================================
;; function __p___argc [0x00000001400029a8..0x00000001400029b0) (8 bytes)
;;   confidence: observed 1.000
;;   sources:   symbol, call
;; ============================================================
0x00000001400029a8  ff 25 da 69 00 00             jmp        qword ptr [140009388h] ; jmp(ds:[5368746888]:64)
0x00000001400029ae  90                            nop        ; nop
0x00000001400029af  90                            nop        ; nop

;; ============================================================
;; function __p___argv [0x00000001400029b0..0x00000001400029b8) (8 bytes)
;;   confidence: observed 1.000
;;   sources:   symbol, call
;; ============================================================
0x00000001400029b0  ff 25 da 69 00 00             jmp        qword ptr [140009390h] ; jmp(ds:[5368746896]:64)
0x00000001400029b6  90                            nop        ; nop
0x00000001400029b7  90                            nop        ; nop

;; ============================================================
;; function _cexit [0x00000001400029b8..0x00000001400029c0) (8 bytes)
;;   confidence: observed 1.000
;;   sources:   symbol, call
;; ============================================================
0x00000001400029b8  ff 25 da 69 00 00             jmp        qword ptr [140009398h] ; jmp(ds:[5368746904]:64)
0x00000001400029be  90                            nop        ; nop
0x00000001400029bf  90                            nop        ; nop

;; ============================================================
;; function _configure_narrow_argv [0x00000001400029c0..0x00000001400029c8) (8 bytes)
;;   confidence: observed 1.000
;;   sources:   symbol, call
;; ============================================================
0x00000001400029c0  ff 25 da 69 00 00             jmp        qword ptr [1400093A0h] ; jmp(ds:[5368746912]:64)
0x00000001400029c6  90                            nop        ; nop
0x00000001400029c7  90                            nop        ; nop

;; ============================================================
;; function _crt_atexit [0x00000001400029c8..0x00000001400029d0) (8 bytes)
;;   confidence: observed 1.000
;;   sources:   symbol, call
;; ============================================================
0x00000001400029c8  ff 25 da 69 00 00             jmp        qword ptr [1400093A8h] ; jmp(ds:[5368746920]:64)
0x00000001400029ce  90                            nop        ; nop
0x00000001400029cf  90                            nop        ; nop

;; ============================================================
;; function _exit [0x00000001400029d0..0x00000001400029d8) (8 bytes)
;;   confidence: observed 1.000
;;   sources:   symbol, call
;; ============================================================
0x00000001400029d0  ff 25 da 69 00 00             jmp        qword ptr [1400093B0h] ; jmp(ds:[5368746928]:64)
0x00000001400029d6  90                            nop        ; nop
0x00000001400029d7  90                            nop        ; nop

;; ============================================================
;; function _initialize_narrow_environment [0x00000001400029d8..0x00000001400029e0) (8 bytes)
;;   confidence: observed 1.000
;;   sources:   symbol, call
;; ============================================================
0x00000001400029d8  ff 25 da 69 00 00             jmp        qword ptr [1400093B8h] ; jmp(ds:[5368746936]:64)
0x00000001400029de  90                            nop        ; nop
0x00000001400029df  90                            nop        ; nop

;; ============================================================
;; function _initterm [0x00000001400029e0..0x00000001400029e8) (8 bytes)
;;   confidence: observed 1.000
;;   sources:   symbol, call
;; ============================================================
0x00000001400029e0  ff 25 da 69 00 00             jmp        qword ptr [1400093C0h] ; jmp(ds:[5368746944]:64)
0x00000001400029e6  90                            nop        ; nop
0x00000001400029e7  90                            nop        ; nop

;; ============================================================
;; function _initterm_e [0x00000001400029e8..0x00000001400029f0) (8 bytes)
;;   confidence: observed 1.000
;;   sources:   symbol, call
;; ============================================================
0x00000001400029e8  ff 25 da 69 00 00             jmp        qword ptr [1400093C8h] ; jmp(ds:[5368746952]:64)
0x00000001400029ee  90                            nop        ; nop
0x00000001400029ef  90                            nop        ; nop

;; ============================================================
;; function _set_invalid_parameter_handler [0x00000001400029f0..0x00000001400029f8) (8 bytes)
;;   confidence: observed 1.000
;;   sources:   symbol, call
;; ============================================================
0x00000001400029f0  ff 25 da 69 00 00             jmp        qword ptr [1400093D0h] ; jmp(ds:[5368746960]:64)
0x00000001400029f6  90                            nop        ; nop
0x00000001400029f7  90                            nop        ; nop

;; ============================================================
;; function abort [0x00000001400029f8..0x0000000140002a00) (8 bytes)
;;   confidence: observed 1.000
;;   sources:   symbol, call
;; ============================================================
0x00000001400029f8  ff 25 da 69 00 00             jmp        qword ptr [1400093D8h] ; jmp(ds:[5368746968]:64)
0x00000001400029fe  90                            nop        ; nop
0x00000001400029ff  90                            nop        ; nop

;; ============================================================
;; function exit [0x0000000140002a00..0x0000000140002a08) (8 bytes)
;;   confidence: observed 1.000
;;   sources:   symbol, call
;; ============================================================
0x0000000140002a00  ff 25 da 69 00 00             jmp        qword ptr [1400093E0h] ; jmp(ds:[5368746976]:64)
0x0000000140002a06  90                            nop        ; nop
0x0000000140002a07  90                            nop        ; nop

;; ============================================================
;; function signal [0x0000000140002a08..0x0000000140002a18) (16 bytes)
;;   confidence: observed 1.000
;;   sources:   symbol, call
;; ============================================================
0x0000000140002a08  ff 25 da 69 00 00             jmp        qword ptr [1400093E8h] ; jmp(ds:[5368746984]:64)
0x0000000140002a0e  90                            nop        ; nop
0x0000000140002a0f  90                            nop        ; nop
0x0000000140002a10  ff 25 52 69 00 00             jmp        qword ptr [140009368h] ; jmp(ds:[5368746856]:64)
0x0000000140002a16  90                            nop        ; nop
0x0000000140002a17  90                            nop        ; nop

;; ============================================================
;; function memcpy [0x0000000140002a18..0x0000000140002a20) (8 bytes)
;;   confidence: observed 1.000
;;   sources:   symbol, call
;; ============================================================
0x0000000140002a18  ff 25 52 69 00 00             jmp        qword ptr [140009370h] ; jmp(ds:[5368746864]:64)
0x0000000140002a1e  90                            nop        ; nop
0x0000000140002a1f  90                            nop        ; nop

;; ============================================================
;; function __setusermatherr [0x0000000140002a20..0x0000000140002a28) (8 bytes)
;;   confidence: observed 1.000
;;   sources:   symbol
;; ============================================================
0x0000000140002a20  ff 25 32 69 00 00             jmp        qword ptr [140009358h] ; jmp(ds:[5368746840]:64)
0x0000000140002a26  90                            nop        ; nop
0x0000000140002a27  90                            nop        ; nop

;; ============================================================
;; function _configthreadlocale [0x0000000140002a28..0x0000000140002a30) (8 bytes)
;;   confidence: observed 1.000
;;   sources:   symbol, call
;; ============================================================
0x0000000140002a28  ff 25 1a 69 00 00             jmp        qword ptr [140009348h] ; jmp(ds:[5368746824]:64)
0x0000000140002a2e  90                            nop        ; nop
0x0000000140002a2f  90                            nop        ; nop

;; ============================================================
;; function _set_new_mode [0x0000000140002a30..0x0000000140002a38) (8 bytes)
;;   confidence: observed 1.000
;;   sources:   symbol, call
;; ============================================================
0x0000000140002a30  ff 25 ea 68 00 00             jmp        qword ptr [140009320h] ; jmp(ds:[5368746784]:64)
0x0000000140002a36  90                            nop        ; nop
0x0000000140002a37  90                            nop        ; nop

;; ============================================================
;; function calloc [0x0000000140002a38..0x0000000140002a40) (8 bytes)
;;   confidence: observed 1.000
;;   sources:   symbol, call
;; ============================================================
0x0000000140002a38  ff 25 ea 68 00 00             jmp        qword ptr [140009328h] ; jmp(ds:[5368746792]:64)
0x0000000140002a3e  90                            nop        ; nop
0x0000000140002a3f  90                            nop        ; nop

;; ============================================================
;; function free [0x0000000140002a40..0x0000000140002a48) (8 bytes)
;;   confidence: observed 1.000
;;   sources:   symbol, call
;; ============================================================
0x0000000140002a40  ff 25 ea 68 00 00             jmp        qword ptr [140009330h] ; jmp(ds:[5368746800]:64)
0x0000000140002a46  90                            nop        ; nop
0x0000000140002a47  90                            nop        ; nop

;; ============================================================
;; function malloc [0x0000000140002a48..0x0000000140002a50) (8 bytes)
;;   confidence: observed 1.000
;;   sources:   symbol, call
;; ============================================================
0x0000000140002a48  ff 25 ea 68 00 00             jmp        qword ptr [140009338h] ; jmp(ds:[5368746808]:64)
0x0000000140002a4e  90                            nop        ; nop
0x0000000140002a4f  90                            nop        ; nop

;; ============================================================
;; function __p__environ [0x0000000140002a50..0x0000000140002a60) (16 bytes)
;;   confidence: observed 1.000
;;   sources:   symbol, call
;; ============================================================
0x0000000140002a50  ff 25 ba 68 00 00             jmp        qword ptr [140009310h] ; jmp(ds:[5368746768]:64)
0x0000000140002a56  90                            nop        ; nop
0x0000000140002a57  90                            nop        ; nop
0x0000000140002a58  0f 1f 84 00 00 00 00 00       nop        [rax+rax] ; nop

;; ============================================================
;; function main [0x0000000140002a60..0x0000000140002ac0) (96 bytes)
;;   confidence: observed 1.000
;;   sources:   symbol, call
;; ============================================================
0x0000000140002a60  48 83 ec 58                   sub        rsp,58h ; sub(rsp:64, 88#64)
0x0000000140002a64  e8 e7 eb ff ff                call       0000000140001650h ; call(@0x140001650)
0x0000000140002a69  b9 f5 ff ff ff                mov        ecx,0FFFFFFF5h ; mov(ecx:32, -11#32)
0x0000000140002a6e  ff 15 44 68 00 00             call       qword ptr [1400092B8h] ; call(ds:[5368746680]:64)
0x0000000140002a74  0f 28 05 d5 15 00 00          movaps     xmm0,[140004050h] ; opaque(movaps)
0x0000000140002a7b  31 d2                         xor        edx,edx ; xor(edx:32, edx:32)
0x0000000140002a7d  31 c9                         xor        ecx,ecx ; xor(ecx:32, ecx:32)
0x0000000140002a7f  89 54 24 38                   mov        [rsp+38h],edx ; mov(ss:[rsp+56]:32, edx:32)
0x0000000140002a83  4c 8d 4c 24 38                lea        r9,[rsp+38h] ; lea(r9:64, ss:[rsp+56]:0)
0x0000000140002a88  48 8d 54 24 3d                lea        rdx,[rsp+3Dh] ; lea(rdx:64, ss:[rsp+61]:0)
0x0000000140002a8d  41 b8 12 00 00 00             mov        r8d,12h ; mov(r8d:32, 18#32)
0x0000000140002a93  48 89 4c 24 20                mov        [rsp+20h],rcx ; mov(ss:[rsp+32]:64, rcx:64)
0x0000000140002a98  48 89 c1                      mov        rcx,rax ; mov(rcx:64, rax:64)
0x0000000140002a9b  0f 11 44 24 3d                movups     [rsp+3Dh],xmm0 ; opaque(movups)
0x0000000140002aa0  c7 44 24 4c 50 45 0a 00       mov        dword ptr [rsp+4Ch],0A4550h ; mov(ss:[rsp+76]:32, 673104#32)
0x0000000140002aa8  ff 15 52 68 00 00             call       qword ptr [140009300h] ; call(ds:[5368746752]:64)
0x0000000140002aae  b8 2a 00 00 00                mov        eax,2Ah ; mov(eax:32, 42#32)
0x0000000140002ab3  48 83 c4 58                   add        rsp,58h ; add(rsp:64, 88#64)
0x0000000140002ab7  c3                            ret        ; ret
0x0000000140002ab8  90                            nop        ; nop
0x0000000140002ab9  90                            nop        ; nop
0x0000000140002aba  90                            nop        ; nop
0x0000000140002abb  90                            nop        ; nop
0x0000000140002abc  90                            nop        ; nop
0x0000000140002abd  90                            nop        ; nop
0x0000000140002abe  90                            nop        ; nop
0x0000000140002abf  90                            nop        ; nop

;; ============================================================
;; function register_frame_ctor [0x0000000140002ac0..0x0000000140002ad0) (16 bytes)
;;   confidence: observed 1.000
;;   sources:   symbol
;; ============================================================
0x0000000140002ac0  e9 cb e9 ff ff                jmp        0000000140001490h ; jmp(@0x140001490)
0x0000000140002ac5  90                            nop        ; nop
0x0000000140002ac6  90                            nop        ; nop
0x0000000140002ac7  90                            nop        ; nop
0x0000000140002ac8  90                            nop        ; nop
0x0000000140002ac9  90                            nop        ; nop
0x0000000140002aca  90                            nop        ; nop
0x0000000140002acb  90                            nop        ; nop
0x0000000140002acc  90                            nop        ; nop
0x0000000140002acd  90                            nop        ; nop
0x0000000140002ace  90                            nop        ; nop
0x0000000140002acf  90                            nop        ; nop

