;; dac -O0 annotated listing
;; input:     tests/fixtures/libsample.so
;; format:    ELF
;; arch:      x86-64
;; entry:     (none)
;; size:      15296 bytes
;; functions: 8
;; signals:   symbol=8 entry=0 call=1 prologue=2 plt=0

;; ============================================================
;; function _init [0x0000000000001000..0x000000000000101b) (27 bytes)
;;   confidence: observed 1.000
;;   sources:   symbol, prologue
;; ============================================================
0x0000000000001000  f3 0f 1e fa                   endbr64    ; nop
0x0000000000001004  48 83 ec 08                   sub        rsp,8 ; sub(rsp:64, 8#64)
0x0000000000001008  48 8b 05 c1 2f 00 00          mov        rax,[3FD0h] ; mov(rax:64, ds:[16336]:64)
0x000000000000100f  48 85 c0                      test       rax,rax ; test(rax:64, rax:64)
0x0000000000001012  74 02                         je         short 0000000000001016h ; jcc.eq(@0x1016)
0x0000000000001014  ff d0                         call       rax ; call(rax:64)
0x0000000000001016  48 83 c4 08                   add        rsp,8 ; add(rsp:64, 8#64)
0x000000000000101a  c3                            ret        ; ret

;; ============================================================
;; function deregister_tm_clones [0x0000000000001020..0x0000000000001050) (48 bytes)
;;   confidence: observed 1.000
;;   sources:   symbol, call
;; ============================================================
0x0000000000001020  48 8d 3d e9 2f 00 00          lea        rdi,[4010h] ; lea(rdi:64, ds:[16400]:0)
0x0000000000001027  48 8d 05 e2 2f 00 00          lea        rax,[4010h] ; lea(rax:64, ds:[16400]:0)
0x000000000000102e  48 39 f8                      cmp        rax,rdi ; cmp(rax:64, rdi:64)
0x0000000000001031  74 15                         je         short 0000000000001048h ; jcc.eq(@0x1048)
0x0000000000001033  48 8b 05 8e 2f 00 00          mov        rax,[3FC8h] ; mov(rax:64, ds:[16328]:64)
0x000000000000103a  48 85 c0                      test       rax,rax ; test(rax:64, rax:64)
0x000000000000103d  74 09                         je         short 0000000000001048h ; jcc.eq(@0x1048)
0x000000000000103f  ff e0                         jmp        rax ; jmp(rax:64)
0x0000000000001041  0f 1f 80 00 00 00 00          nop        [rax] ; nop
0x0000000000001048  c3                            ret        ; ret
0x0000000000001049  0f 1f 80 00 00 00 00          nop        [rax] ; nop

;; ============================================================
;; function register_tm_clones [0x0000000000001050..0x0000000000001090) (64 bytes)
;;   confidence: observed 1.000
;;   sources:   symbol
;; ============================================================
0x0000000000001050  48 8d 3d b9 2f 00 00          lea        rdi,[4010h] ; lea(rdi:64, ds:[16400]:0)
0x0000000000001057  48 8d 35 b2 2f 00 00          lea        rsi,[4010h] ; lea(rsi:64, ds:[16400]:0)
0x000000000000105e  48 29 fe                      sub        rsi,rdi ; sub(rsi:64, rdi:64)
0x0000000000001061  48 89 f0                      mov        rax,rsi ; mov(rax:64, rsi:64)
0x0000000000001064  48 c1 ee 3f                   shr        rsi,3Fh ; shr(rsi:64, 63#8)
0x0000000000001068  48 c1 f8 03                   sar        rax,3 ; sar(rax:64, 3#8)
0x000000000000106c  48 01 c6                      add        rsi,rax ; add(rsi:64, rax:64)
0x000000000000106f  48 d1 fe                      sar        rsi,1 ; sar(rsi:64, 1#8)
0x0000000000001072  74 14                         je         short 0000000000001088h ; jcc.eq(@0x1088)
0x0000000000001074  48 8b 05 5d 2f 00 00          mov        rax,[3FD8h] ; mov(rax:64, ds:[16344]:64)
0x000000000000107b  48 85 c0                      test       rax,rax ; test(rax:64, rax:64)
0x000000000000107e  74 08                         je         short 0000000000001088h ; jcc.eq(@0x1088)
0x0000000000001080  ff e0                         jmp        rax ; jmp(rax:64)
0x0000000000001082  66 0f 1f 44 00 00             nop        [rax+rax] ; nop
0x0000000000001088  c3                            ret        ; ret
0x0000000000001089  0f 1f 80 00 00 00 00          nop        [rax] ; nop

;; ============================================================
;; function __do_global_dtors_aux [0x0000000000001090..0x00000000000010e0) (80 bytes)
;;   confidence: observed 1.000
;;   sources:   symbol
;; ============================================================
0x0000000000001090  f3 0f 1e fa                   endbr64    ; nop
0x0000000000001094  80 3d 71 2f 00 00 00          cmp        byte ptr [400Ch],0 ; cmp(ds:[16396]:8, 0#8)
0x000000000000109b  75 33                         jne        short 00000000000010D0h ; jcc.ne(@0x10d0)
0x000000000000109d  55                            push       rbp ; push(rbp:64)
0x000000000000109e  48 83 3d 3a 2f 00 00 00       cmp        qword ptr [3FE0h],0 ; cmp(ds:[16352]:64, 0#64)
0x00000000000010a6  48 89 e5                      mov        rbp,rsp ; mov(rbp:64, rsp:64)
0x00000000000010a9  74 0d                         je         short 00000000000010B8h ; jcc.eq(@0x10b8)
0x00000000000010ab  48 8b 3d 4e 2f 00 00          mov        rdi,[4000h] ; mov(rdi:64, ds:[16384]:64)
0x00000000000010b2  ff 15 28 2f 00 00             call       qword ptr [3FE0h] ; call(ds:[16352]:64)
0x00000000000010b8  e8 63 ff ff ff                call       0000000000001020h ; call(@0x1020)
0x00000000000010bd  c6 05 48 2f 00 00 01          mov        byte ptr [400Ch],1 ; mov(ds:[16396]:8, 1#8)
0x00000000000010c4  5d                            pop        rbp ; pop(rbp:64)
0x00000000000010c5  c3                            ret        ; ret
0x00000000000010c6  66 2e 0f 1f 84 00 00 00 .     nop        [rax+rax] ; nop
0x00000000000010d0  c3                            ret        ; ret
0x00000000000010d1  0f 1f 40 00                   nop        [rax] ; nop
0x00000000000010d5  66 66 2e 0f 1f 84 00 00 .     nop        [rax+rax] ; nop

;; ============================================================
;; function frame_dummy [0x00000000000010e0..0x00000000000010e9) (9 bytes)
;;   confidence: observed 1.000
;;   sources:   symbol
;; ============================================================
0x00000000000010e0  f3 0f 1e fa                   endbr64    ; nop
0x00000000000010e4  e9 67 ff ff ff                jmp        0000000000001050h ; jmp(@0x1050)

;; ============================================================
;; function sample_add [0x00000000000010e9..0x00000000000010ed) (4 bytes)
;;   confidence: observed 1.000
;;   sources:   symbol
;; ============================================================
0x00000000000010e9  8d 04 37                      lea        eax,[rdi+rsi] ; lea(eax:32, ds:[rdi+rsi*1]:0)
0x00000000000010ec  c3                            ret        ; ret

;; ============================================================
;; function sample_greeting [0x00000000000010ed..0x00000000000010f5) (8 bytes)
;;   confidence: observed 1.000
;;   sources:   symbol
;; ============================================================
0x00000000000010ed  48 8d 05 0c 0f 00 00          lea        rax,[2000h] ; lea(rax:64, ds:[8192]:0)
0x00000000000010f4  c3                            ret        ; ret

;; ============================================================
;; function _fini [0x00000000000010f8..0x0000000000001105) (13 bytes)
;;   confidence: observed 1.000
;;   sources:   symbol, prologue
;; ============================================================
0x00000000000010f8  f3 0f 1e fa                   endbr64    ; nop
0x00000000000010fc  48 83 ec 08                   sub        rsp,8 ; sub(rsp:64, 8#64)
0x0000000000001100  48 83 c4 08                   add        rsp,8 ; add(rsp:64, 8#64)
0x0000000000001104  c3                            ret        ; ret

